(dp1
S'chvrches'
p2
(dp3
VWarning Call
p4
(lp5
(lp6
(VI
S'PRP'
tp7
a(Vhear
S'VBP'
tp8
a(Vit
S'PRP'
tp9
aa(lp10
(VEchoing
S'NN'
p11
tp12
a(Vof
S'IN'
tp13
a(Vevery
S'DT'
tp14
a(Vplace
g11
tp15
a(Vthat
S'IN'
tp16
a(Vwe
S'PRP'
tp17
a(V've
S'VBP'
tp18
a(Vcalled
S'VBN'
tp19
a(Vour
S'PRP$'
tp20
a(Vhome
g11
tp21
aa(lp22
(VAnd
S'CC'
tp23
a(VI
S'PRP'
tp24
a(Vdo
S'VBP'
tp25
a(Vn't
S'RB'
tp26
a(Vtalk
S'VB'
tp27
aa(lp28
(VOf
S'IN'
tp29
a(Vany
S'DT'
tp30
a(Vtime
S'NN'
tp31
a(VI
S'PRP'
tp32
a(Vever
S'RB'
tp33
a(Vbelieved
S'VBD'
tp34
a(Vin
S'IN'
tp35
a(Vthe
S'DT'
tp36
a(Vunknown
S'JJ'
tp37
aa(lp38
(VI
S'PRP'
tp39
a(Vneed
S'VBP'
tp40
a(Vit
S'PRP'
tp41
aa(lp42
(VSo
S'RB'
p43
tp44
a(VI
S'PRP'
p45
tp46
a(Vhold
S'VBP'
tp47
a(Von
S'IN'
tp48
a(Vto
S'TO'
tp49
a(Vevery
S'DT'
tp50
a(Vmistake
S'NN'
tp51
a(Vthat
S'IN'
tp52
a(VI
g45
tp53
a(Vmade
S'VBD'
tp54
a(Valone
g43
tp55
aa(lp56
(VAnd
S'CC'
tp57
a(VI
S'PRP'
tp58
a(Vdo
S'VBP'
tp59
a(Vn't
S'RB'
tp60
a(Vlie
S'VB'
tp61
aa(lp62
(VWhen
S'WRB'
tp63
a(VI
S'PRP'
tp64
a(Vsay
S'VBP'
tp65
a(Vthat
S'IN'
tp66
a(Vwe
S'PRP'
tp67
a(Vwill
S'MD'
tp68
a(Vnever
S'RB'
tp69
a(Vreturn
S'VB'
tp70
a(Vto
S'TO'
tp71
a(Vclosing
S'VBG'
tp72
a(Vdoors
S'NNS'
tp73
aa(lp74
(VSleep
S'JJ'
tp75
a(Vtight
S'NN'
p76
tp77
a(Vin
S'IN'
tp78
a(Va
S'DT'
tp79
a(Vnew
S'JJ'
tp80
a(Vlight
g76
tp81
aa(lp82
(VThrough
S'IN'
tp83
a(Vanother
S'DT'
tp84
a(Vwarning
S'NN'
p85
tp86
a(Vcall
g85
tp87
aa(lp88
(VLook
S'VB'
tp89
a(Vdown
S'RP'
tp90
a(Von
S'IN'
tp91
a(Vthe
S'DT'
tp92
a(Vcold
S'JJ'
tp93
a(Vground
S'NN'
tp94
aa(lp95
(VNo
S'DT'
tp96
a(Vone
S'CD'
tp97
a(Vtry
S'NN'
p98
tp99
a(Vto
S'TO'
tp100
a(Vbreak
S'VB'
tp101
a(Vthe
S'DT'
tp102
a(Vfall
g98
tp103
aa(lp104
(VI
S'PRP'
tp105
a(Vfeel
S'VBP'
tp106
a(Vit
S'PRP'
tp107
aa(lp108
(VMoving
S'VBG'
tp109
a(Vin
S'IN'
tp110
a(Van
S'DT'
tp111
a(Vanother
S'DT'
tp112
a(Vdirection
S'NN'
tp113
a(Vwe
S'PRP'
tp114
a(Vcall
S'VBP'
tp115
a(Vour
S'PRP$'
tp116
a(Vown
S'JJ'
tp117
aa(lp118
(VAnd
S'CC'
tp119
a(VI
S'PRP'
tp120
a(Vwo
S'MD'
tp121
a(Vn't
S'RB'
tp122
a(Vchase
S'VB'
tp123
aa(lp124
(VAnyone
S'NN'
tp125
a(Vwho
S'WP'
p126
tp127
a(Vever
S'RB'
tp128
a(Vbelieved
S'VBN'
tp129
a(Vin
S'IN'
tp130
a(Vwhat
g126
tp131
a(Vthey
S'PRP'
tp132
a(Vstole
S'VBP'
tp133
aa(lp134
(VI
S'PRP'
tp135
a(Vneed
S'VBP'
tp136
a(Vit
S'PRP'
tp137
aa(lp138
(VSo
S'RB'
tp139
a(VI
S'PRP'
p140
tp141
a(Vhold
S'VBP'
tp142
a(Von
S'IN'
tp143
a(Vto
S'TO'
tp144
a(Vevery
S'DT'
tp145
a(Vpiece
S'NN'
p146
tp147
a(Vof
S'IN'
tp148
a(Vmine
g146
tp149
a(Vthat
S'IN'
tp150
a(VI
g140
tp151
a(Vchose
S'VBD'
tp152
aa(lp153
(VAnd
S'CC'
tp154
a(VI
S'PRP'
tp155
a(Vdo
S'VBP'
tp156
a(Vn't
S'RB'
tp157
a(Vlie
S'VB'
tp158
aa(lp159
(VWhen
S'WRB'
tp160
a(VI
S'PRP'
tp161
a(Vsay
S'VBP'
tp162
a(Vthat
S'IN'
tp163
a(Vwe
S'PRP'
tp164
a(Vwill
S'MD'
tp165
a(Vnever
S'RB'
tp166
a(Vreturn
S'VB'
tp167
a(Vto
S'TO'
tp168
a(Vclosing
S'VBG'
tp169
a(Vdoors
S'NNS'
tp170
aa(lp171
(VSleep
S'JJ'
tp172
a(Vtight
S'NN'
p173
tp174
a(Vin
S'IN'
tp175
a(Va
S'DT'
tp176
a(Vnew
S'JJ'
tp177
a(Vlight
g173
tp178
aa(lp179
(VThrough
S'IN'
tp180
a(Vanother
S'DT'
tp181
a(Vwarning
S'NN'
p182
tp183
a(Vcall
g182
tp184
aa(lp185
(VLook
S'VB'
tp186
a(Vdown
S'RP'
tp187
a(Von
S'IN'
tp188
a(Vthe
S'DT'
tp189
a(Vcold
S'JJ'
tp190
a(Vground
S'NN'
tp191
aa(lp192
(VNo
S'DT'
tp193
a(Vone
S'CD'
tp194
a(Vtry
S'NN'
p195
tp196
a(Vto
S'TO'
tp197
a(Vbreak
S'VB'
tp198
a(Vthe
S'DT'
tp199
a(Vfall
g195
tp200
aa(lp201
(VSay
S'NNP'
tp202
a(Vyou
S'PRP'
tp203
a(V'll
S'MD'
tp204
a(Vremember
S'VB'
tp205
aa(lp206
(VTo
S'TO'
tp207
a(Vkeep
S'VB'
tp208
a(Vit
S'PRP'
tp209
a(Vall
S'DT'
tp210
a(Vinside
S'IN'
tp211
aa(lp212
(VYou
S'PRP'
tp213
a(Vcan
S'MD'
tp214
a(Vrun
S'VB'
tp215
a(Vfor
S'IN'
tp216
a(Vthe
S'DT'
tp217
a(Vskyline
S'NN'
tp218
aa(lp219
(VYour
S'PRP$'
tp220
a(Veyes
S'NNS'
tp221
a(Vopen
S'JJ'
tp222
a(Vwide
S'JJ'
tp223
aa(lp224
(VSay
S'NNP'
tp225
a(Vyou
S'PRP'
tp226
a(V'll
S'MD'
tp227
a(Vremember
S'VB'
tp228
aa(lp229
(VTo
S'TO'
tp230
a(Vkeep
S'VB'
tp231
a(Vit
S'PRP'
tp232
a(Vall
S'DT'
tp233
a(Vinside
S'IN'
tp234
aa(lp235
(VYou
S'PRP'
tp236
a(Vcan
S'MD'
tp237
a(Vrun
S'VB'
tp238
a(Vfor
S'IN'
tp239
a(Vthe
S'DT'
tp240
a(Vskyline
S'NN'
tp241
aa(lp242
(VYour
S'PRP$'
tp243
a(Veyes
S'NNS'
tp244
a(Vopen
S'JJ'
tp245
a(Vwide
S'JJ'
tp246
aa(lp247
(V(
S'('
tp248
a(VIt
S'PRP'
tp249
a(V's
S'VBZ'
tp250
a(Va
S'DT'
tp251
a(Vmemory
S'NN'
tp252
a(V)
S')'
tp253
aa(lp254
(VDo
S'VBP'
tp255
a(Vn't
S'RB'
tp256
a(Vlook
S'VB'
tp257
a(Vaway
S'RP'
tp258
aa(lp259
(V(
S'('
tp260
a(VIt
S'PRP'
tp261
a(V's
S'VBZ'
tp262
a(Va
S'DT'
tp263
a(Vmemory
S'NN'
tp264
a(V)
S')'
tp265
aa(lp266
(VCause
S'NN'
tp267
a(Vwhen
S'WRB'
tp268
a(Vwe
S'PRP'
p269
tp270
a(Vsee
S'VBP'
tp271
a(Vit
S'PRP'
tp272
a(Vwe
g269
tp273
a(Vare
S'VBP'
tp274
a(Vcloser
S'RBR'
tp275
aa(lp276
(VDo
S'VBP'
tp277
a(Vn't
S'RB'
tp278
a(Vlook
S'VB'
tp279
a(Vaway
S'RP'
tp280
aa(lp281
(VCause
S'NN'
tp282
a(Vwhen
S'WRB'
tp283
a(Vwe
S'PRP'
p284
tp285
a(Vsee
S'VBP'
tp286
a(Vit
S'PRP'
tp287
a(Vwe
g284
tp288
a(Vare
S'VBP'
tp289
a(Vnear
S'IN'
tp290
aa(lp291
(VSay
S'NNP'
tp292
a(Vyou
S'PRP'
tp293
a(V'll
S'MD'
tp294
a(Vremember
S'VB'
tp295
aa(lp296
(VTo
S'TO'
tp297
a(Vkeep
S'VB'
tp298
a(Vit
S'PRP'
tp299
a(Vall
S'DT'
tp300
a(Vinside
S'IN'
tp301
aa(lp302
(VYou
S'PRP'
tp303
a(Vcan
S'MD'
tp304
a(Vrun
S'VB'
tp305
a(Vfor
S'IN'
tp306
a(Vthe
S'DT'
tp307
a(Vskyline
S'NN'
tp308
aa(lp309
(VYour
S'PRP$'
tp310
a(Veyes
S'NNS'
tp311
a(Vopen
S'JJ'
tp312
a(Vwide
S'JJ'
tp313
aa(lp314
(VSay
S'NNP'
tp315
a(Vyou
S'PRP'
tp316
a(V'll
S'MD'
tp317
a(Vremember
S'VB'
tp318
aa(lp319
(VTo
S'TO'
tp320
a(Vkeep
S'VB'
tp321
a(Vit
S'PRP'
tp322
a(Vall
S'DT'
tp323
a(Vinside
S'IN'
tp324
aa(lp325
(VYou
S'PRP'
tp326
a(Vcan
S'MD'
tp327
a(Vrun
S'VB'
tp328
a(Vfor
S'IN'
tp329
a(Vthe
S'DT'
tp330
a(Vskyline
S'NN'
tp331
aa(lp332
(VYour
S'PRP$'
tp333
a(Veyes
S'NNS'
tp334
a(Vopen
S'JJ'
tp335
a(Vwide
S'JJ'
tp336
aa(lp337
(VIt
S'PRP'
tp338
a(V's
S'VBZ'
p339
tp340
a(Va
S'DT'
p341
tp342
a(Vmemory
S'NN'
p343
tp344
a(V,
S','
tp345
a(Vit
S'PRP'
p346
tp347
a(V's
g339
tp348
a(Va
g341
tp349
a(Vmemory
g343
tp350
a(V,
S','
tp351
a(Vit
g346
tp352
a(V's
g339
tp353
a(Va
g341
tp354
a(Vmemory
g343
tp355
a(V,
S','
tp356
a(Vit
g346
tp357
a(V's
g339
tp358
a(Va
g341
tp359
a(Vmemory
g343
tp360
aa(lp361
(VIt
S'PRP'
tp362
a(V's
S'VBZ'
p363
tp364
a(Va
S'DT'
p365
tp366
a(Vmemory
S'NN'
p367
tp368
a(V,
S','
tp369
a(Vit
S'PRP'
p370
tp371
a(V's
g363
tp372
a(Va
g365
tp373
a(Vmemory
g367
tp374
a(V,
S','
tp375
a(Vit
g370
tp376
a(V's
g363
tp377
a(Va
g365
tp378
a(Vmemory
g367
tp379
a(V,
S','
tp380
a(Vit
g370
tp381
a(V's
g363
tp382
a(Va
g365
tp383
a(Vmemory
g367
tp384
aa(lp385
(VIt
S'PRP'
tp386
a(V's
S'VBZ'
p387
tp388
a(Va
S'DT'
p389
tp390
a(Vmemory
S'NN'
p391
tp392
a(V,
S','
tp393
a(Vit
S'PRP'
p394
tp395
a(V's
g387
tp396
a(Va
g389
tp397
a(Vmemory
g391
tp398
a(V,
S','
tp399
a(Vit
g394
tp400
a(V's
g387
tp401
a(Va
g389
tp402
a(Vmemory
g391
tp403
a(V,
S','
tp404
a(Vit
g394
tp405
a(V's
g387
tp406
a(Va
g389
tp407
a(Vmemory
g391
tp408
aa(lp409
(VIt
S'PRP'
tp410
a(V's
S'VBZ'
p411
tp412
a(Va
S'DT'
p413
tp414
a(Vmemory
S'NN'
p415
tp416
a(V,
S','
tp417
a(Vit
S'PRP'
p418
tp419
a(V's
g411
tp420
a(Va
g413
tp421
a(Vmemory
g415
tp422
a(V,
S','
tp423
a(Vit
g418
tp424
a(V's
g411
tp425
a(Va
g413
tp426
a(Vmemory
g415
tp427
a(V,
S','
tp428
a(Vit
g418
tp429
a(V's
g411
tp430
a(Va
g413
tp431
a(Vmemory
g415
tp432
aasVThe Mother We Share
p433
(lp434
(lp435
(VNever
S'RB'
tp436
a(Vtook
S'VBD'
tp437
a(Vyour
S'PRP$'
p438
tp439
a(Vside
S'NN'
p440
tp441
a(V,
S','
tp442
a(Vnever
S'RB'
tp443
a(Vcursed
S'VBN'
tp444
a(Vyour
g438
tp445
a(Vname
g440
tp446
aa(lp447
(VI
S'PRP'
tp448
a(Vkeep
S'VBP'
tp449
a(Vmy
S'PRP$'
tp450
a(Vlip
S'NN'
p451
tp452
a(Vshut
g451
tp453
a(Vtight
S'VBD'
tp454
aa(lp455
(VUntil
S'IN'
tp456
a(Vyou
S'PRP'
tp457
a(Vgo-o-o-o-o-o-oo
S'VBP'
tp458
aa(lp459
(VWe
S'PRP'
tp460
a(V've
S'VBP'
tp461
a(Vcome
S'VBN'
p462
tp463
a(Vas
S'IN'
p464
tp465
a(Vfar
S'RB'
tp466
a(V,
S','
tp467
a(Vas
g464
tp468
a(Vwe
S'PRP'
tp469
a(V're
S'VBP'
tp470
a(Vever
S'RB'
tp471
a(Vgon
g462
tp472
a(Vna
S'TO'
tp473
a(Vget
S'VB'
tp474
aa(lp475
(VUntil
S'IN'
tp476
a(Vyou
S'PRP'
p477
tp478
a(Vrealize
S'VBP'
tp479
a(Vthat
S'IN'
tp480
a(Vyou
g477
tp481
a(Vshould
S'MD'
tp482
a(Vgo-o-o-o-oh
S'VB'
tp483
aa(lp484
(VCome
S'NNP'
tp485
a(Vin
S'IN'
tp486
a(Vmisery
S'NN'
tp487
a(Vwhere
S'WRB'
tp488
a(Vyou
S'PRP'
tp489
a(Vcan
S'MD'
tp490
a(Vseem
S'VB'
tp491
a(Vas
S'RB'
tp492
a(Vold
S'JJ'
tp493
a(Vas
S'IN'
tp494
a(Vyour
S'PRP$'
tp495
a(Vomens
S'NNS'
tp496
aa(lp497
(VAnd
S'CC'
tp498
a(Vthe
S'DT'
tp499
a(Vmother
S'NN'
p500
tp501
a(Vwe
S'PRP'
tp502
a(Vshare
S'NN'
tp503
a(Vwill
S'MD'
tp504
a(Vnever
S'RB'
tp505
a(Vkeep
S'VB'
tp506
a(Vyour
S'PRP$'
tp507
a(Vproud
S'JJ'
tp508
a(Vhead
g500
tp509
a(Vfrom
S'IN'
tp510
a(Vfalling
S'VBG'
tp511
aa(lp512
(VThe
S'DT'
tp513
a(Vway
S'NN'
tp514
a(Vis
S'VBZ'
tp515
a(Vlong
S'RB'
tp516
a(Vbut
S'CC'
tp517
a(Vyou
S'PRP'
tp518
a(Vcan
S'MD'
tp519
a(Vmake
S'VB'
p520
tp521
a(Vit
S'PRP'
tp522
a(Veasy
g520
tp523
a(Von
S'IN'
tp524
a(Vme
S'PRP'
tp525
aa(lp526
(VAnd
S'CC'
tp527
a(Vthe
S'DT'
tp528
a(Vmother
S'NN'
tp529
a(Vwe
S'PRP'
tp530
a(Vshare
S'NN'
tp531
a(Vwill
S'MD'
tp532
a(Vnever
S'RB'
tp533
a(Vkeep
S'VB'
tp534
a(Vour
S'PRP$'
tp535
a(Vcold
S'JJ'
tp536
a(Vhearts
S'NNS'
tp537
a(Vfrom
S'IN'
tp538
a(Vcalling
S'VBG'
tp539
aa(lp540
(VIn
S'IN'
tp541
a(Vthe
S'DT'
tp542
a(Vdying
S'NN'
p543
tp544
a(Vlight
g543
tp545
aa(lp546
(VI
S'PRP'
tp547
a(V'm
S'VBP'
tp548
a(Vthe
S'DT'
tp549
a(Vonly
S'JJ'
tp550
a(Vone
S'CD'
tp551
a(Vhere
S'RB'
tp552
aa(lp553
(VAnd
S'CC'
tp554
a(VI
S'PRP'
tp555
a(Vwill
S'MD'
tp556
a(Vcover
S'VB'
tp557
a(Vyou
S'PRP'
p558
tp559
a(V,
S','
tp560
a(Vuntil
S'IN'
tp561
a(Vyou
g558
tp562
a(Vgo-o-o-o-oh
S'VBP'
tp563
aa(lp564
(VCause
S'IN'
tp565
a(Vif
S'IN'
tp566
a(VI
S'PRP'
p567
tp568
a(Vtold
S'VBD'
tp569
a(Vthe
S'DT'
tp570
a(Vtruth
S'NN'
tp571
a(V,
S','
tp572
a(VI
g567
tp573
a(Vwill
S'MD'
tp574
a(Valways
S'RB'
tp575
a(Vbe
S'VB'
tp576
a(Vfree
S'JJ'
tp577
aa(lp578
(VAnd
S'CC'
tp579
a(Vkeep
S'VB'
tp580
a(Va
S'DT'
tp581
a(Vprize
S'NN'
tp582
a(Vwith
S'IN'
tp583
a(Vme
S'PRP'
tp584
a(V,
S','
tp585
a(Vuntil
S'IN'
tp586
a(Vyou
S'PRP'
tp587
a(Vgo-o-o-o-oh
S'VBP'
tp588
aa(lp589
(VCome
S'NNP'
tp590
a(Vin
S'IN'
tp591
a(Vmisery
S'NN'
tp592
a(Vbut
S'CC'
tp593
a(Vyou
S'PRP'
tp594
a(Vca
S'MD'
tp595
a(Vn't
S'RB'
tp596
a(Vseem
S'VB'
tp597
a(V,
S','
tp598
a(Vas
S'RB'
tp599
a(Vold
S'JJ'
tp600
a(Vas
S'IN'
tp601
a(Vyour
S'PRP$'
tp602
a(Vomens
S'NNS'
tp603
aa(lp604
(VAnd
S'CC'
tp605
a(Vthe
S'DT'
tp606
a(Vmother
S'NN'
p607
tp608
a(Vwe
S'PRP'
tp609
a(Vshare
S'NN'
tp610
a(Vwill
S'MD'
tp611
a(Vnever
S'RB'
tp612
a(Vkeep
S'VB'
tp613
a(Vyour
S'PRP$'
tp614
a(Vproud
S'JJ'
tp615
a(Vhead
g607
tp616
a(Vfrom
S'IN'
tp617
a(Vfalling
S'VBG'
tp618
aa(lp619
(VThe
S'DT'
tp620
a(Vway
S'NN'
tp621
a(Vis
S'VBZ'
tp622
a(Vlong
S'RB'
tp623
a(Vbut
S'CC'
tp624
a(Vyou
S'PRP'
tp625
a(Vcan
S'MD'
tp626
a(Vmake
S'VB'
p627
tp628
a(Vit
S'PRP'
tp629
a(Veasy
g627
tp630
a(Von
S'IN'
tp631
a(Vme
S'PRP'
tp632
aa(lp633
(VAnd
S'CC'
tp634
a(Vthe
S'DT'
tp635
a(Vmother
S'NN'
tp636
a(Vwe
S'PRP'
tp637
a(Vshare
S'NN'
tp638
a(Vwill
S'MD'
tp639
a(Vnever
S'RB'
tp640
a(Vkeep
S'VB'
tp641
a(Vour
S'PRP$'
tp642
a(Vcold
S'JJ'
tp643
a(Vhearts
S'NNS'
tp644
a(Vfrom
S'IN'
tp645
a(Vcalling
S'VBG'
tp646
aa(lp647
(VInto
S'IN'
tp648
a(Vthe
S'DT'
p649
tp650
a(Vnight
S'NN'
tp651
a(Vfalls
S'VBZ'
tp652
a(V,
S','
tp653
a(Vwe
S'PRP'
tp654
a(V're
S'VBP'
tp655
a(Vthe
g649
tp656
a(Vonly
S'JJ'
tp657
a(Vones
S'NNS'
tp658
a(Vleft
S'VBD'
tp659
aa(lp660
(VI
S'PRP'
tp661
a(Vbet
S'VBP'
p662
tp663
a(Vyou
S'PRP'
tp664
a(Veven
S'RB'
tp665
a(Vknow
g662
tp666
a(V,
S','
tp667
a(Vwhere
S'WRB'
tp668
a(Vwe
S'PRP'
tp669
a(Vcan
S'MD'
tp670
a(Vgo-o-o-o-oh
S'VB'
tp671
aa(lp672
(VWhen
S'WRB'
tp673
a(Vit
S'PRP'
tp674
a(Vall
S'DT'
tp675
a(Vfucks
S'VBZ'
tp676
a(Vup
S'RP'
tp677
a(V,
S','
tp678
a(Vyou
S'PRP'
tp679
a(Vput
S'VBP'
tp680
a(Vyour
S'PRP$'
tp681
a(Vhead
S'NN'
tp682
a(Vin
S'IN'
tp683
a(Vmy
S'PRP$'
tp684
a(Vhands
S'NNS'
tp685
aa(lp686
(VIt
S'PRP'
tp687
a(V's
S'VBZ'
tp688
a(Va
S'DT'
tp689
a(Vsouvenir
S'NN'
tp690
a(V,
S','
tp691
a(Vfor
S'IN'
tp692
a(Vwhen
S'WRB'
tp693
a(Vyou
S'PRP'
tp694
a(Vgo-o-o-o-oh
S'VBP'
tp695
aa(lp696
(VI
S'PRP'
tp697
a(V'm
S'VBP'
tp698
a(Vin
S'IN'
tp699
a(Vmisery
S'NN'
tp700
a(Vbut
S'CC'
tp701
a(Vyou
S'PRP'
tp702
a(Vca
S'MD'
tp703
a(Vn't
S'RB'
tp704
a(Vsee
S'VB'
tp705
a(V,
S','
tp706
a(Vas
S'RB'
tp707
a(Vold
S'JJ'
tp708
a(Vas
S'IN'
tp709
a(Vyour
S'PRP$'
tp710
a(Vomens
S'NNS'
tp711
aa(lp712
(VAnd
S'CC'
tp713
a(Vthe
S'DT'
tp714
a(Vmother
S'NN'
p715
tp716
a(Vwe
S'PRP'
tp717
a(Vshare
S'NN'
tp718
a(Vwill
S'MD'
tp719
a(Vnever
S'RB'
tp720
a(Vkeep
S'VB'
tp721
a(Vyour
S'PRP$'
tp722
a(Vproud
S'JJ'
tp723
a(Vhead
g715
tp724
a(Vfrom
S'IN'
tp725
a(Vfalling
S'VBG'
tp726
aa(lp727
(VThe
S'DT'
tp728
a(Vway
S'NN'
tp729
a(Vis
S'VBZ'
tp730
a(Vlong
S'RB'
tp731
a(Vbut
S'CC'
tp732
a(Vyou
S'PRP'
tp733
a(Vcan
S'MD'
tp734
a(Vmake
S'VB'
p735
tp736
a(Vit
S'PRP'
tp737
a(Veasy
g735
tp738
a(Von
S'IN'
tp739
a(Vme
S'PRP'
tp740
aa(lp741
(VAnd
S'CC'
tp742
a(Vthe
S'DT'
tp743
a(Vmother
S'NN'
tp744
a(Vwe
S'PRP'
tp745
a(Vshare
S'NN'
tp746
a(Vwill
S'MD'
tp747
a(Vnever
S'RB'
tp748
a(Vkeep
S'VB'
tp749
a(Vour
S'PRP$'
tp750
a(Vcold
S'JJ'
tp751
a(Vhearts
S'NNS'
tp752
a(Vfrom
S'IN'
tp753
a(Vcalling
S'VBG'
tp754
aasVBow Down
p755
(lp756
(lp757
(VHoping
S'VBG'
tp758
a(Vfor
S'IN'
tp759
a(Vthe
S'DT'
tp760
a(Vpin
S'NN'
tp761
a(Vto
S'TO'
tp762
a(Vdrop
S'VB'
tp763
aa(lp764
(VCause
S'NN'
tp765
a(VI
S'PRP'
tp766
a(Vca
S'MD'
tp767
a(Vn't
S'RB'
tp768
a(Vhold
S'VB'
tp769
a(Vit
S'PRP'
tp770
a(Vall
S'DT'
tp771
aa(lp772
(VTrying
S'VBG'
tp773
a(Vto
S'TO'
tp774
a(Vcorrect
S'VB'
tp775
a(Vthe
S'DT'
tp776
a(Vwrongs
S'NNS'
tp777
aa(lp778
(VSay
S'NNP'
tp779
a(Vwhen
S'WRB'
p780
tp781
a(V,
S','
tp782
a(Vsay
S'VBP'
tp783
a(Vwhen
g780
tp784
aa(lp785
(VBetter
S'NNP'
tp786
a(Vluck
S'NN'
tp787
a(Vnow
S'RB'
tp788
a(Vthat
S'IN'
tp789
a(Vyou
S'PRP'
tp790
a(V're
S'VBP'
tp791
a(Von
S'IN'
tp792
a(Vyour
S'PRP$'
tp793
a(Vown
S'JJ'
tp794
aa(lp795
(VSo
S'RB'
p796
tp797
a(Vdo
S'VBP'
tp798
a(Vn't
S'RB'
tp799
a(Vjust
S'RB'
tp800
a(Vlie
S'VB'
tp801
a(Vthere
g796
tp802
aa(lp803
(VHoping
S'VBG'
tp804
a(Vfor
S'IN'
tp805
a(Vthe
S'DT'
tp806
a(Vpin
S'NN'
tp807
a(Vto
S'TO'
tp808
a(Vdrop
S'VB'
tp809
aa(lp810
(VSay
S'NNP'
tp811
a(Vwhen
S'WRB'
p812
tp813
a(V,
S','
tp814
a(Vsay
S'VBP'
tp815
a(Vwhen
g812
tp816
aa(lp817
(VKeep
S'VB'
tp818
a(Vcounting
S'VBG'
tp819
a(Vall
S'PDT'
tp820
a(Vthe
S'DT'
tp821
a(Vfresh
S'JJ'
tp822
a(Vstarts
S'VBZ'
tp823
a(Vwe
S'PRP'
tp824
a(V've
S'VBP'
tp825
a(Vhad
S'VBD'
tp826
aa(lp827
(VI
S'PRP'
tp828
a(V'll
S'MD'
tp829
a(Vraise
S'VB'
tp830
a(Vanother
S'DT'
tp831
a(Vwhite
S'JJ'
tp832
a(Vflag
S'NN'
tp833
a(Vso
S'IN'
p834
tp835
a(Vthat
g834
tp836
aa(lp837
(VWe
S'PRP'
tp838
a(Vkeep
S'VBP'
tp839
a(Vcounting
S'VBG'
tp840
a(Vall
S'PDT'
tp841
a(Vthe
S'DT'
tp842
a(Vfresh
S'JJ'
tp843
a(Vstarts
S'VBZ'
tp844
a(Vwe
S'PRP'
tp845
a(V've
S'VBP'
tp846
a(Vhad
S'VBD'
tp847
aa(lp848
(VI
S'PRP'
tp849
a(V'll
S'MD'
tp850
a(Vfly
S'VB'
tp851
a(Vanother
S'DT'
tp852
a(Vwhite
S'JJ'
tp853
a(Vflag
S'NN'
tp854
a(Vover
S'IN'
tp855
a(Vus
S'PRP'
tp856
aa(lp857
(VNo
S'DT'
p858
tp859
a(Vtime
S'NN'
p860
tp861
a(Vto
S'TO'
p862
tp863
a(Vbow
S'VB'
p864
tp865
a(Vdown
S'RP'
tp866
a(V,
S','
tp867
a(Vno
g858
tp868
a(Vtime
g860
tp869
a(Vto
g862
tp870
a(Vkill
g864
tp871
aa(lp872
(VNo
S'DT'
tp873
a(Vjustifying
S'NN'
p874
tp875
a(V,
S','
tp876
a(Vstaying
S'VBG'
tp877
a(Vdown
S'RP'
tp878
a(Vin
S'IN'
tp879
a(Vsilence
g874
tp880
aa(lp881
(VNo
S'DT'
p882
tp883
a(Vtime
S'NN'
p884
tp885
a(Vto
S'TO'
p886
tp887
a(Vbow
S'VB'
p888
tp889
a(Vdown
S'RP'
tp890
a(V,
S','
tp891
a(Vno
g882
tp892
a(Vtime
g884
tp893
a(Vto
g886
tp894
a(Vkill
g888
tp895
aa(lp896
(VWe
S'PRP'
tp897
a(Vstay
S'VBP'
tp898
a(Vbetween
S'IN'
tp899
a(Vthe
S'DT'
tp900
a(Vwhite
S'JJ'
tp901
a(Vlines
S'NNS'
tp902
aa(lp903
(VNo
S'DT'
p904
tp905
a(Vtime
S'NN'
p906
tp907
a(Vto
S'TO'
p908
tp909
a(Vbow
S'VB'
p910
tp911
a(Vdown
S'RP'
tp912
a(V,
S','
tp913
a(Vno
g904
tp914
a(Vtime
g906
tp915
a(Vto
g908
tp916
a(Vkill
g910
tp917
aa(lp918
(VNo
S'DT'
tp919
a(Vjustifying
S'NN'
p920
tp921
a(V,
S','
tp922
a(Vstaying
S'VBG'
tp923
a(Vdown
S'RP'
tp924
a(Vin
S'IN'
tp925
a(Vsilence
g920
tp926
aa(lp927
(VNo
S'DT'
p928
tp929
a(Vtime
S'NN'
p930
tp931
a(Vto
S'TO'
p932
tp933
a(Vbow
S'VB'
p934
tp935
a(Vdown
S'RP'
tp936
a(V,
S','
tp937
a(Vno
g928
tp938
a(Vtime
g930
tp939
a(Vto
g932
tp940
a(Vkill
g934
tp941
aa(lp942
(VWe
S'PRP'
tp943
a(Vstay
S'VBP'
tp944
a(Vbetween
S'IN'
tp945
a(Vthe
S'DT'
tp946
a(Vwhite
S'JJ'
tp947
a(Vlines
S'NNS'
tp948
aa(lp949
(VHoping
S'VBG'
tp950
a(Vfor
S'IN'
tp951
a(Va
S'DT'
tp952
a(Vstroke
S'NN'
p953
tp954
a(Vof
S'IN'
tp955
a(Vluck
g953
tp956
aa(lp957
(VBut
S'CC'
tp958
a(Vone
S'CD'
tp959
a(Vyou
S'PRP'
tp960
a(V're
S'VBP'
tp961
a(Vcounting
S'VBG'
tp962
a(Von
S'IN'
tp963
aa(lp964
(VTrying
S'VBG'
tp965
a(Vto
S'TO'
tp966
a(Vdeflect
S'VB'
tp967
a(Va
S'DT'
tp968
a(Vwave
S'NN'
tp969
aa(lp970
(VSay
S'NNP'
tp971
a(Vwhen
S'WRB'
p972
tp973
a(V,
S','
tp974
a(Vsay
S'VBP'
tp975
a(Vwhen
g972
tp976
aa(lp977
(VWhat
S'WP'
tp978
a(Vdo
S'VBP'
p979
tp980
a(Vyou
S'PRP'
p981
tp982
a(Vhave
S'VB'
p983
tp984
a(Vand
S'CC'
tp985
a(Vwhat
S'WP'
tp986
a(Vdo
g979
tp987
a(Vyou
g981
tp988
a(Vwant
g983
tp989
aa(lp990
(VAre
S'NNP'
tp991
a(Vyou
S'PRP'
tp992
a(Vstill
S'RB'
tp993
a(Vstuck
S'VBD'
tp994
a(Vhere
S'RB'
tp995
aa(lp996
(VHoping
S'VBG'
tp997
a(Vfor
S'IN'
tp998
a(Va
S'DT'
tp999
a(Vstroke
S'NN'
p1000
tp1001
a(Vof
S'IN'
tp1002
a(Vluck
g1000
tp1003
a(V?
S'.'
tp1004
aa(lp1005
(VSay
S'NNP'
tp1006
a(Vwhen
S'WRB'
p1007
tp1008
a(V,
S','
tp1009
a(Vsay
S'VBP'
tp1010
a(Vwhen
g1007
tp1011
aa(lp1012
(VKeep
S'VB'
tp1013
a(Vcounting
S'VBG'
tp1014
a(Vall
S'PDT'
tp1015
a(Vthe
S'DT'
tp1016
a(Vfresh
S'JJ'
tp1017
a(Vstarts
S'VBZ'
tp1018
a(Vwe
S'PRP'
tp1019
a(V've
S'VBP'
tp1020
a(Vhad
S'VBD'
tp1021
aa(lp1022
(VI
S'PRP'
tp1023
a(V'll
S'MD'
tp1024
a(Vraise
S'VB'
tp1025
a(Vanother
S'DT'
tp1026
a(Vwhite
S'JJ'
tp1027
a(Vflag
S'NN'
tp1028
a(Vso
S'IN'
p1029
tp1030
a(Vthat
g1029
tp1031
aa(lp1032
(VWe
S'PRP'
tp1033
a(Vkeep
S'VBP'
tp1034
a(Vcounting
S'VBG'
tp1035
a(Vall
S'PDT'
tp1036
a(Vthe
S'DT'
tp1037
a(Vfresh
S'JJ'
tp1038
a(Vstarts
S'VBZ'
tp1039
a(Vwe
S'PRP'
tp1040
a(V've
S'VBP'
tp1041
a(Vhad
S'VBD'
tp1042
aa(lp1043
(VI
S'PRP'
tp1044
a(V'll
S'MD'
tp1045
a(Vfly
S'VB'
tp1046
a(Vanother
S'DT'
tp1047
a(Vwhite
S'JJ'
tp1048
a(Vflag
S'NN'
tp1049
a(Vover
S'IN'
tp1050
a(Vus
S'PRP'
tp1051
aa(lp1052
(VNo
S'DT'
p1053
tp1054
a(Vtime
S'NN'
p1055
tp1056
a(Vto
S'TO'
p1057
tp1058
a(Vbow
S'VB'
p1059
tp1060
a(Vdown
S'RP'
tp1061
a(V,
S','
tp1062
a(Vno
g1053
tp1063
a(Vtime
g1055
tp1064
a(Vto
g1057
tp1065
a(Vkill
g1059
tp1066
aa(lp1067
(VNo
S'DT'
tp1068
a(Vjustifying
S'NN'
p1069
tp1070
a(V,
S','
tp1071
a(Vstaying
S'VBG'
tp1072
a(Vdown
S'RP'
tp1073
a(Vin
S'IN'
tp1074
a(Vsilence
g1069
tp1075
aa(lp1076
(VNo
S'DT'
p1077
tp1078
a(Vtime
S'NN'
p1079
tp1080
a(Vto
S'TO'
p1081
tp1082
a(Vbow
S'VB'
p1083
tp1084
a(Vdown
S'RP'
tp1085
a(V,
S','
tp1086
a(Vno
g1077
tp1087
a(Vtime
g1079
tp1088
a(Vto
g1081
tp1089
a(Vkill
g1083
tp1090
aa(lp1091
(VWe
S'PRP'
tp1092
a(Vstay
S'VBP'
tp1093
a(Vbetween
S'IN'
tp1094
a(Vthe
S'DT'
tp1095
a(Vwhite
S'JJ'
tp1096
a(Vlines
S'NNS'
tp1097
aa(lp1098
(VNo
S'DT'
p1099
tp1100
a(Vtime
S'NN'
p1101
tp1102
a(Vto
S'TO'
p1103
tp1104
a(Vbow
S'VB'
p1105
tp1106
a(Vdown
S'RP'
tp1107
a(V,
S','
tp1108
a(Vno
g1099
tp1109
a(Vtime
g1101
tp1110
a(Vto
g1103
tp1111
a(Vkill
g1105
tp1112
aa(lp1113
(VNo
S'DT'
tp1114
a(Vjustifying
S'NN'
p1115
tp1116
a(V,
S','
tp1117
a(Vstaying
S'VBG'
tp1118
a(Vdown
S'RP'
tp1119
a(Vin
S'IN'
tp1120
a(Vsilence
g1115
tp1121
aa(lp1122
(VNo
S'DT'
p1123
tp1124
a(Vtime
S'NN'
p1125
tp1126
a(Vto
S'TO'
p1127
tp1128
a(Vbow
S'VB'
p1129
tp1130
a(Vdown
S'RP'
tp1131
a(V,
S','
tp1132
a(Vno
g1123
tp1133
a(Vtime
g1125
tp1134
a(Vto
g1127
tp1135
a(Vkill
g1129
tp1136
aa(lp1137
(VWe
S'PRP'
tp1138
a(Vstay
S'VBP'
tp1139
a(Vbetween
S'IN'
tp1140
a(Vthe
S'DT'
tp1141
a(Vwhite
S'JJ'
tp1142
a(Vlines
S'NNS'
tp1143
aa(lp1144
(VChanging
S'VBG'
tp1145
a(Vfocus
S'NN'
tp1146
aa(lp1147
(VStay
S'NNP'
tp1148
a(Vin
S'IN'
tp1149
a(Vsilence
S'NN'
tp1150
aa(lp1151
(VChanging
S'VBG'
tp1152
a(Vfocus
S'NN'
tp1153
aa(lp1154
(VStay
S'NNP'
tp1155
a(Vin
S'IN'
tp1156
a(Vsilence
S'NN'
tp1157
aa(lp1158
(V(
S'('
tp1159
a(VChanging
S'VBG'
tp1160
a(Vfocus
S'NN'
tp1161
a(V)
S')'
tp1162
aa(lp1163
(VNo
S'DT'
p1164
tp1165
a(Vtime
S'NN'
p1166
tp1167
a(Vto
S'TO'
p1168
tp1169
a(Vbow
S'VB'
p1170
tp1171
a(Vdown
S'RP'
tp1172
a(V,
S','
tp1173
a(Vno
g1164
tp1174
a(Vtime
g1166
tp1175
a(Vto
g1168
tp1176
a(Vkill
g1170
tp1177
aa(lp1178
(V(
S'('
tp1179
a(VStay
S'NNP'
tp1180
a(Vin
S'IN'
tp1181
a(Vsilence
S'NN'
tp1182
a(V)
S')'
tp1183
aa(lp1184
(VNo
S'DT'
tp1185
a(Vjustifying
S'NN'
p1186
tp1187
a(V,
S','
tp1188
a(Vstaying
S'VBG'
tp1189
a(Vdown
S'RP'
tp1190
a(Vin
S'IN'
tp1191
a(Vsilence
g1186
tp1192
aa(lp1193
(V(
S'('
tp1194
a(VChanging
S'VBG'
tp1195
a(Vfocus
S'NN'
tp1196
a(V)
S')'
tp1197
aa(lp1198
(VNo
S'DT'
p1199
tp1200
a(Vtime
S'NN'
p1201
tp1202
a(Vto
S'TO'
p1203
tp1204
a(Vbow
S'VB'
p1205
tp1206
a(Vdown
S'RP'
tp1207
a(V,
S','
tp1208
a(Vno
g1199
tp1209
a(Vtime
g1201
tp1210
a(Vto
g1203
tp1211
a(Vkill
g1205
tp1212
aa(lp1213
(V(
S'('
tp1214
a(VStay
S'NNP'
tp1215
a(Vin
S'IN'
tp1216
a(Vsilence
S'NN'
tp1217
a(V)
S')'
tp1218
aa(lp1219
(VWe
S'PRP'
tp1220
a(Vstay
S'VBP'
tp1221
a(Vbetween
S'IN'
tp1222
a(Vthe
S'DT'
tp1223
a(Vwhite
S'JJ'
tp1224
a(Vlines
S'NNS'
tp1225
aa(lp1226
(VNo
S'DT'
p1227
tp1228
a(Vtime
S'NN'
p1229
tp1230
a(Vto
S'TO'
p1231
tp1232
a(Vbow
S'VB'
p1233
tp1234
a(Vdown
S'RP'
tp1235
a(V,
S','
tp1236
a(Vno
g1227
tp1237
a(Vtime
g1229
tp1238
a(Vto
g1231
tp1239
a(Vkill
g1233
tp1240
aa(lp1241
(VNo
S'DT'
tp1242
a(Vjustifying
S'NN'
p1243
tp1244
a(V,
S','
tp1245
a(Vstaying
S'VBG'
tp1246
a(Vdown
S'RP'
tp1247
a(Vin
S'IN'
tp1248
a(Vsilence
g1243
tp1249
aa(lp1250
(VNo
S'DT'
p1251
tp1252
a(Vtime
S'NN'
p1253
tp1254
a(Vto
S'TO'
p1255
tp1256
a(Vbow
S'VB'
p1257
tp1258
a(Vdown
S'RP'
tp1259
a(V,
S','
tp1260
a(Vno
g1251
tp1261
a(Vtime
g1253
tp1262
a(Vto
g1255
tp1263
a(Vkill
g1257
tp1264
aa(lp1265
(VWe
S'PRP'
tp1266
a(Vstay
S'VBP'
tp1267
a(Vbetween
S'IN'
tp1268
a(Vthe
S'DT'
tp1269
a(Vwhite
S'JJ'
tp1270
a(Vlines
S'NNS'
tp1271
aa(lp1272
(VNo
S'DT'
p1273
tp1274
a(Vtime
S'NN'
p1275
tp1276
a(Vto
S'TO'
p1277
tp1278
a(Vbow
S'VB'
p1279
tp1280
a(Vdown
S'RP'
tp1281
a(V,
S','
tp1282
a(Vno
g1273
tp1283
a(Vtime
g1275
tp1284
a(Vto
g1277
tp1285
a(Vkill
g1279
tp1286
aa(lp1287
(VNo
S'DT'
tp1288
a(Vjustifying
S'NN'
p1289
tp1290
a(V,
S','
tp1291
a(Vstaying
S'VBG'
tp1292
a(Vdown
S'RP'
tp1293
a(Vin
S'IN'
tp1294
a(Vsilence
g1289
tp1295
aa(lp1296
(VNo
S'DT'
p1297
tp1298
a(Vtime
S'NN'
p1299
tp1300
a(Vto
S'TO'
p1301
tp1302
a(Vbow
S'VB'
p1303
tp1304
a(Vdown
S'RP'
tp1305
a(V,
S','
tp1306
a(Vno
g1297
tp1307
a(Vtime
g1299
tp1308
a(Vto
g1301
tp1309
a(Vkill
g1303
tp1310
aa(lp1311
(VWe
S'PRP'
tp1312
a(Vstay
S'VBP'
tp1313
a(Vbetween
S'IN'
tp1314
a(Vthe
S'DT'
tp1315
a(Vwhite
S'JJ'
tp1316
a(Vlines
S'NNS'
tp1317
aa(lp1318
(VThe
S'DT'
tp1319
a(Vwhite
S'JJ'
tp1320
a(Vlines
S'NNS'
tp1321
aa(lp1322
(VBetween
S'IN'
tp1323
a(Vthe
S'DT'
tp1324
a(Vwhite
S'JJ'
tp1325
a(Vlines
S'NNS'
tp1326
aa(lp1327
(VWhite
S'NNP'
tp1328
a(Vlines
S'NNS'
tp1329
aasVDead Air
p1330
(lp1331
(lp1332
(VI
S'PRP'
tp1333
a(Vwill
S'MD'
tp1334
a(Vnever
S'RB'
tp1335
a(Vbelieve
S'VB'
tp1336
a(Vwhat
S'WP'
tp1337
a(Vthey
S'PRP'
tp1338
a(Vsay
S'VBP'
tp1339
aa(lp1340
(VThere
S'EX'
tp1341
a(Vis
S'VBZ'
tp1342
a(Va
S'DT'
tp1343
a(Vstrength
S'NN'
tp1344
a(Vin
S'IN'
tp1345
a(Venduring
S'VBG'
tp1346
aa(lp1347
(VThey
S'PRP'
tp1348
a(Vnever
S'RB'
tp1349
a(Vspeak
S'VBP'
tp1350
a(Vfor
S'IN'
tp1351
a(Vthemselves
S'PRP'
tp1352
aa(lp1353
(VWe
S'PRP'
tp1354
a(Vare
S'VBP'
tp1355
a(Vdisappearing
S'VBG'
tp1356
aa(lp1357
(VYou
S'PRP'
tp1358
a(Vwill
S'MD'
tp1359
a(Vbe
S'VB'
tp1360
a(Vall
S'PDT'
tp1361
a(Vthat
S'IN'
tp1362
a(VI
S'PRP'
tp1363
a(Vseek
S'VBP'
tp1364
aa(lp1365
(VIn
S'IN'
tp1366
a(Va
S'DT'
tp1367
a(Vtwisted
S'JJ'
tp1368
a(Vlight
S'NN'
tp1369
aa(lp1370
(VI
S'PRP'
tp1371
a(Vwould
S'MD'
tp1372
a(Vlive
S'VB'
tp1373
a(Vinside
S'IN'
tp1374
a(Vyou
S'PRP'
tp1375
aa(lp1376
(VWords
S'NNS'
tp1377
a(Vwill
S'MD'
tp1378
a(Vbe
S'VB'
tp1379
a(Vall
S'PDT'
tp1380
a(Vthat
S'IN'
tp1381
a(VI
S'PRP'
tp1382
a(Vkeep
S'VBP'
tp1383
aa(lp1384
(VIn
S'IN'
tp1385
a(Van
S'DT'
tp1386
a(Vopen
S'JJ'
tp1387
a(Vspace
S'NN'
tp1388
aa(lp1389
(VThey
S'PRP'
tp1390
a(Vwould
S'MD'
tp1391
a(Vlive
S'VB'
tp1392
a(Vinside
S'IN'
tp1393
a(Vyou
S'PRP'
tp1394
aa(lp1395
(VWe
S'PRP'
tp1396
a(Vhold
S'VBP'
tp1397
a(Vup
S'RP'
tp1398
a(Vto
S'TO'
tp1399
a(Van
S'DT'
tp1400
a(Videa
S'NN'
tp1401
aa(lp1402
(VAnd
S'CC'
tp1403
a(Vwe
S'PRP'
p1404
tp1405
a(V'll
S'MD'
tp1406
a(Vfight
S'VB'
p1407
tp1408
a(Vwhat
S'WP'
tp1409
a(Vwe
g1404
tp1410
a(Vca
S'MD'
tp1411
a(Vn't
S'RB'
tp1412
a(Vsee
g1407
tp1413
aa(lp1414
(VWe
S'PRP'
tp1415
a(Vjust
S'RB'
tp1416
a(Vhold
S'VB'
tp1417
a(Vup
S'RP'
tp1418
a(Vto
S'TO'
tp1419
a(Van
S'DT'
tp1420
a(Videa
S'NN'
tp1421
aa(lp1422
(VWe
S'PRP'
tp1423
a(Vkeep
S'VBP'
tp1424
a(Vgoing
S'VBG'
tp1425
a(Vtill
S'NN'
tp1426
a(Vwe
S'PRP'
tp1427
a(Vca
S'MD'
tp1428
a(Vn't
S'RB'
tp1429
a(Vhear
S'VB'
tp1430
aa(lp1431
(V(
S'('
tp1432
a(VDead
S'NNP'
tp1433
a(Vair
S'NN'
tp1434
a(V)
S')'
tp1435
aa(lp1436
(VWe
S'PRP'
tp1437
a(Vhold
S'VBP'
tp1438
a(Vup
S'RP'
tp1439
a(Vto
S'TO'
tp1440
a(Van
S'DT'
tp1441
a(Videa
S'NN'
tp1442
aa(lp1443
(VAnd
S'CC'
tp1444
a(Vwe
S'PRP'
p1445
tp1446
a(V'll
S'MD'
tp1447
a(Vfight
S'VB'
p1448
tp1449
a(Vwhat
S'WP'
tp1450
a(Vwe
g1445
tp1451
a(Vca
S'MD'
tp1452
a(Vn't
S'RB'
tp1453
a(Vsee
g1448
tp1454
aa(lp1455
(VWe
S'PRP'
tp1456
a(Vjust
S'RB'
tp1457
a(Vhold
S'VB'
tp1458
a(Vup
S'RP'
tp1459
a(Vto
S'TO'
tp1460
a(Van
S'DT'
tp1461
a(Videa
S'NN'
tp1462
aa(lp1463
(VWe
S'PRP'
tp1464
a(Vkeep
S'VBP'
tp1465
a(Vgoing
S'VBG'
tp1466
a(Vtill
S'NN'
tp1467
a(Vwe
S'PRP'
tp1468
a(Vca
S'MD'
tp1469
a(Vn't
S'RB'
tp1470
a(Vhear
S'VB'
tp1471
aa(lp1472
(V(
S'('
tp1473
a(VDead
S'NNP'
tp1474
a(Vair
S'NN'
tp1475
a(V)
S')'
tp1476
aa(lp1477
(VWe
S'PRP'
tp1478
a(Va-
S'VBP'
tp1479
a(Vwe
S'PRP'
tp1480
a(Va-are
S'JJ'
tp1481
aa(lp1482
(VWe
S'PRP'
tp1483
a(Vare
S'VBP'
tp1484
a(Vall
S'DT'
tp1485
a(Vjust
S'RB'
tp1486
a(Vdead
S'JJ'
tp1487
a(Vair
S'NN'
tp1488
aa(lp1489
(VWe
S'PRP'
tp1490
a(Va-
S'VBP'
tp1491
a(Vwe
S'PRP'
tp1492
a(Va-are
S'JJ'
tp1493
aa(lp1494
(VWe
S'PRP'
tp1495
a(Vare
S'VBP'
tp1496
a(Vall
S'DT'
tp1497
a(Vjust
S'RB'
tp1498
a(Vdead
S'JJ'
tp1499
a(Vair
S'NN'
tp1500
aa(lp1501
(VWe
S'PRP'
tp1502
a(Va-
S'VBP'
tp1503
a(Vwe
S'PRP'
tp1504
a(Va-are
S'JJ'
tp1505
aa(lp1506
(VWe
S'PRP'
tp1507
a(Vare
S'VBP'
tp1508
a(Vall
S'DT'
tp1509
a(Vjust
S'RB'
tp1510
a(Vdead
S'JJ'
tp1511
a(Vair
S'NN'
tp1512
aa(lp1513
(VWe
S'PRP'
tp1514
a(Va-
S'VBP'
tp1515
a(Vwe
S'PRP'
tp1516
a(Va-are
S'JJ'
tp1517
aa(lp1518
(VWe
S'PRP'
tp1519
a(Vare
S'VBP'
tp1520
a(Vall
S'DT'
tp1521
a(Vjust
S'RB'
tp1522
a(Vdead
S'JJ'
tp1523
a(Vair
S'NN'
tp1524
aa(lp1525
(VThis
S'DT'
tp1526
a(Vis
S'VBZ'
tp1527
a(Va
S'DT'
tp1528
a(Vcall
S'NN'
tp1529
a(Vto
S'TO'
tp1530
a(Vyour
S'PRP$'
tp1531
a(Varms
S'NNS'
tp1532
aa(lp1533
(VTo
S'TO'
tp1534
a(Vtake
S'VB'
tp1535
a(Von
S'IN'
tp1536
a(Vmind
S'NN'
p1537
tp1538
a(Vover
S'IN'
tp1539
a(Vmatter
g1537
tp1540
aa(lp1541
(VReplacing
S'VBG'
tp1542
a(Vfist
S'NN'
p1543
tp1544
a(Vover
S'IN'
tp1545
a(Vfist
g1543
tp1546
aa(lp1547
(VWe
S'PRP'
tp1548
a(Vare
S'VBP'
tp1549
a(Vdisappearing
S'VBG'
tp1550
aa(lp1551
(VYou
S'PRP'
tp1552
a(Vwill
S'MD'
tp1553
a(Vbe
S'VB'
tp1554
a(Vall
S'PDT'
tp1555
a(Vthat
S'IN'
tp1556
a(VI
S'PRP'
tp1557
a(Vseek
S'VBP'
tp1558
aa(lp1559
(VIn
S'IN'
tp1560
a(Va
S'DT'
tp1561
a(Vtwisted
S'JJ'
tp1562
a(Vlight
S'NN'
tp1563
aa(lp1564
(VI
S'PRP'
tp1565
a(Vwould
S'MD'
tp1566
a(Vlive
S'VB'
tp1567
a(Vinside
S'IN'
tp1568
a(Vyou
S'PRP'
tp1569
aa(lp1570
(VWords
S'NNS'
tp1571
a(Vwill
S'MD'
tp1572
a(Vbe
S'VB'
tp1573
a(Vall
S'PDT'
tp1574
a(Vthat
S'IN'
tp1575
a(VI
S'PRP'
tp1576
a(Vkeep
S'VBP'
tp1577
aa(lp1578
(VIn
S'IN'
tp1579
a(Van
S'DT'
tp1580
a(Vopen
S'JJ'
tp1581
a(Vspace
S'NN'
tp1582
aa(lp1583
(VThey
S'PRP'
tp1584
a(Vwould
S'MD'
tp1585
a(Vlive
S'VB'
tp1586
a(Vinside
S'IN'
tp1587
a(Vyou
S'PRP'
tp1588
aa(lp1589
(VWe
S'PRP'
tp1590
a(Vhold
S'VBP'
tp1591
a(Vup
S'RP'
tp1592
a(Vto
S'TO'
tp1593
a(Van
S'DT'
tp1594
a(Videa
S'NN'
tp1595
aa(lp1596
(VAnd
S'CC'
tp1597
a(Vwe
S'PRP'
p1598
tp1599
a(V'll
S'MD'
tp1600
a(Vfight
S'VB'
p1601
tp1602
a(Vwhat
S'WP'
tp1603
a(Vwe
g1598
tp1604
a(Vca
S'MD'
tp1605
a(Vn't
S'RB'
tp1606
a(Vsee
g1601
tp1607
aa(lp1608
(VWe
S'PRP'
tp1609
a(Vjust
S'RB'
tp1610
a(Vhold
S'VB'
tp1611
a(Vup
S'RP'
tp1612
a(Vto
S'TO'
tp1613
a(Van
S'DT'
tp1614
a(Videa
S'NN'
tp1615
aa(lp1616
(VWe
S'PRP'
tp1617
a(Vkeep
S'VBP'
tp1618
a(Vgoing
S'VBG'
tp1619
a(Vtill
S'NN'
tp1620
a(Vwe
S'PRP'
tp1621
a(Vca
S'MD'
tp1622
a(Vn't
S'RB'
tp1623
a(Vhear
S'VB'
tp1624
aa(lp1625
(V(
S'('
tp1626
a(VDead
S'NNP'
tp1627
a(Vair
S'NN'
tp1628
a(V)
S')'
tp1629
aa(lp1630
(VWe
S'PRP'
tp1631
a(Vhold
S'VBP'
tp1632
a(Vup
S'RP'
tp1633
a(Vto
S'TO'
tp1634
a(Van
S'DT'
tp1635
a(Videa
S'NN'
tp1636
aa(lp1637
(VAnd
S'CC'
tp1638
a(Vwe
S'PRP'
p1639
tp1640
a(V'll
S'MD'
tp1641
a(Vfight
S'VB'
p1642
tp1643
a(Vwhat
S'WP'
tp1644
a(Vwe
g1639
tp1645
a(Vca
S'MD'
tp1646
a(Vn't
S'RB'
tp1647
a(Vsee
g1642
tp1648
aa(lp1649
(VWe
S'PRP'
tp1650
a(Vjust
S'RB'
tp1651
a(Vhold
S'VB'
tp1652
a(Vup
S'RP'
tp1653
a(Vto
S'TO'
tp1654
a(Van
S'DT'
tp1655
a(Videa
S'NN'
tp1656
aa(lp1657
(VWe
S'PRP'
tp1658
a(Vkeep
S'VBP'
tp1659
a(Vgoing
S'VBG'
tp1660
a(Vtill
S'NN'
tp1661
a(Vwe
S'PRP'
tp1662
a(Vca
S'MD'
tp1663
a(Vn't
S'RB'
tp1664
a(Vhear
S'VB'
tp1665
aa(lp1666
(V(
S'('
tp1667
a(VDead
S'NNP'
tp1668
a(Vair
S'NN'
tp1669
a(V)
S')'
tp1670
aa(lp1671
(VWe
S'PRP'
tp1672
a(Va-
S'VBP'
tp1673
a(Vwe
S'PRP'
tp1674
a(Va-are
S'JJ'
tp1675
aa(lp1676
(VWe
S'PRP'
tp1677
a(Vare
S'VBP'
tp1678
a(Vall
S'DT'
tp1679
a(Vjust
S'RB'
tp1680
a(Vdead
S'JJ'
tp1681
a(Vair
S'NN'
tp1682
aa(lp1683
(VWe
S'PRP'
tp1684
a(Va-
S'VBP'
tp1685
a(Vwe
S'PRP'
tp1686
a(Va-are
S'JJ'
tp1687
aa(lp1688
(VWe
S'PRP'
tp1689
a(Vare
S'VBP'
tp1690
a(Vall
S'DT'
tp1691
a(Vjust
S'RB'
tp1692
a(Vdead
S'JJ'
tp1693
a(Vair
S'NN'
tp1694
aa(lp1695
(VWe
S'PRP'
tp1696
a(Va-
S'VBP'
tp1697
a(Vwe
S'PRP'
tp1698
a(Va-are
S'JJ'
tp1699
aa(lp1700
(VWe
S'PRP'
tp1701
a(Vare
S'VBP'
tp1702
a(Vall
S'DT'
tp1703
a(Vjust
S'RB'
tp1704
a(Vdead
S'JJ'
tp1705
a(Vair
S'NN'
tp1706
aa(lp1707
(VWe
S'PRP'
tp1708
a(Va-
S'VBP'
tp1709
a(Vwe
S'PRP'
tp1710
a(Va-are
S'JJ'
tp1711
aa(lp1712
(VWe
S'PRP'
tp1713
a(Vare
S'VBP'
tp1714
a(Vall
S'DT'
tp1715
a(Vjust
S'RB'
tp1716
a(Vdead
S'JJ'
tp1717
a(Vair
S'NN'
tp1718
aa(lp1719
(VWe
S'PRP'
tp1720
a(Va-
S'VBP'
tp1721
a(Vwe
S'PRP'
tp1722
a(Va-are
S'JJ'
tp1723
aa(lp1724
(VWe
S'PRP'
tp1725
a(Vare
S'VBP'
tp1726
a(Vall
S'DT'
tp1727
a(Vjust
S'RB'
tp1728
a(Vdead
S'JJ'
tp1729
a(Vair
S'NN'
tp1730
aa(lp1731
(VWe
S'PRP'
tp1732
a(Va-
S'VBP'
tp1733
a(Vwe
S'PRP'
tp1734
a(Va-are
S'JJ'
tp1735
aa(lp1736
(VWe
S'PRP'
tp1737
a(Vare
S'VBP'
tp1738
a(Vall
S'DT'
tp1739
a(Vjust
S'RB'
tp1740
a(Vdead
S'JJ'
tp1741
a(Vair
S'NN'
tp1742
aa(lp1743
(VWe
S'PRP'
tp1744
a(Va-
S'VBP'
tp1745
a(Vwe
S'PRP'
tp1746
a(Va-are
S'JJ'
tp1747
aa(lp1748
(VWe
S'PRP'
tp1749
a(Vare
S'VBP'
tp1750
a(Vall
S'DT'
tp1751
a(Vjust
S'RB'
tp1752
a(Vdead
S'JJ'
tp1753
a(Vair
S'NN'
tp1754
aa(lp1755
(VWe
S'PRP'
tp1756
a(Va-
S'VBP'
tp1757
a(Vwe
S'PRP'
tp1758
a(Va-are
S'JJ'
tp1759
aa(lp1760
(VWe
S'PRP'
tp1761
a(Vare
S'VBP'
tp1762
a(Vall
S'DT'
tp1763
a(Vjust
S'RB'
tp1764
a(Vdead
S'JJ'
tp1765
a(Vair
S'NN'
tp1766
aasVLungs
p1767
(lp1768
(lp1769
(VHow
S'WRB'
tp1770
a(Vlong
S'JJ'
tp1771
a(V,
S','
tp1772
a(Vtil
S'IN'
tp1773
a(Vyou
S'PRP'
tp1774
aa(lp1775
(VLeave
S'VB'
tp1776
a(Vit
S'PRP'
tp1777
aa(lp1778
(VYou
S'PRP'
tp1779
a(Vshould
S'MD'
tp1780
a(Vknow
S'VB'
tp1781
a(Vthat
S'IN'
tp1782
aa(lp1783
(VWe\u2019re
S'NNP'
tp1784
a(Valone
S'RB'
tp1785
a(Vthis
S'DT'
tp1786
a(Vtime
S'NN'
tp1787
aa(lp1788
(VKeep
S'VB'
tp1789
a(Vyour-
S'NN'
tp1790
aa(lp1791
(VSelf
S'PRP'
tp1792
a(Va
S'DT'
tp1793
a(Vsecret
S'JJ'
tp1794
aa(lp1795
(VYou
S'PRP'
tp1796
a(Vshould
S'MD'
tp1797
a(Vknow
S'VB'
tp1798
a(Vthat
S'IN'
tp1799
aa(lp1800
(VI
S'PRP'
tp1801
a(Vwill
S'MD'
tp1802
a(Vsell
S'VB'
p1803
tp1804
a(Vyou
S'PRP'
p1805
tp1806
a(Va
S'DT'
tp1807
a(Vfuture
S'NN'
tp1808
a(Vyou
g1805
tp1809
a(Vdon\u2019t
S'VBP'
tp1810
a(Vwant
g1803
tp1811
aa(lp1812
(VLike
S'IN'
tp1813
a(VI
S'PRP'
tp1814
a(Vdid
S'VBD'
tp1815
a(Vlast
S'JJ'
tp1816
a(Vtime
S'NN'
tp1817
aa(lp1818
(VI
S'PRP'
tp1819
a(Vwon\u2019t
S'VBP'
tp1820
a(Vgo
S'VB'
tp1821
a(Vslow
S'JJ'
tp1822
aa(lp1823
(VAll
S'PDT'
tp1824
a(Vthe
S'DT'
tp1825
a(Vthings
S'NNS'
tp1826
a(Vyou
S'PRP'
tp1827
a(Vtell
S'VBP'
tp1828
a(Vyourself
S'PRP'
tp1829
aa(lp1830
(VOffer
S'NN'
p1831
tp1832
a(Vno
S'DT'
tp1833
a(Vresolution
g1831
tp1834
aa(lp1835
(VYou
S'PRP'
tp1836
a(Vknow
S'VBP'
tp1837
a(Vthat
S'IN'
tp1838
aa(lp1839
(VThis
S'DT'
tp1840
a(Vwill
S'MD'
tp1841
a(Vbreak
S'VB'
tp1842
a(Vus
S'PRP'
tp1843
aa(lp1844
(VBut
S'CC'
tp1845
a(Vyou
S'PRP'
tp1846
a(Vpush
S'VBP'
tp1847
a(Vus
S'PRP'
tp1848
aa(lp1849
(VAs
S'RB'
tp1850
a(Vfar
S'RB'
tp1851
a(Vas
S'IN'
tp1852
a(Vwe
S'PRP'
tp1853
a(Vcan
S'MD'
tp1854
a(Vgo
S'VB'
tp1855
aa(lp1856
(VTaking
S'VBG'
tp1857
aa(lp1858
(VEvery
S'DT'
tp1859
a(Vchance
S'NN'
tp1860
a(Vto
S'TO'
tp1861
aa(lp1862
(VFind
S'CD'
tp1863
a(Vsolutions
S'NNS'
tp1864
aa(lp1865
(VThat
S'DT'
tp1866
a(Vnever
S'RB'
tp1867
a(Vmake
S'VBP'
tp1868
a(Vanyone
S'NN'
tp1869
a(Vhappy
S'JJ'
tp1870
aa(lp1871
(VWe
S'PRP'
tp1872
a(Vare
S'VBP'
tp1873
a(Vdone
S'VBN'
tp1874
a(Vthis
S'DT'
tp1875
a(Vtime
S'NN'
tp1876
aa(lp1877
(VYou
S'PRP'
tp1878
a(Vdon\u2019t
S'VBP'
tp1879
a(Vowe
S'IN'
tp1880
a(Vme
S'PRP'
tp1881
aa(lp1882
(VTake
S'VB'
tp1883
a(Va
S'DT'
tp1884
aa(lp1885
(VFinal
S'JJ'
tp1886
a(Vtook
S'VBD'
tp1887
a(Vat
S'IN'
tp1888
a(Vme
S'PRP'
tp1889
aa(lp1890
(VTake
S'VB'
p1891
tp1892
a(Vit
S'PRP'
p1893
tp1894
a(Vand
S'CC'
tp1895
a(Vdrink
g1891
tp1896
a(Vit
g1893
tp1897
a(Vin
S'IN'
tp1898
aa(lp1899
(VBreathe
S'NNP'
tp1900
a(Vthrough
S'IN'
tp1901
a(Vme
S'PRP'
tp1902
aa(lp1903
(VFill
S'NNP'
tp1904
a(Vup
S'RP'
tp1905
a(Vyour
S'PRP$'
tp1906
a(Vlungs
S'NNS'
tp1907
a(Vwith
S'IN'
tp1908
a(Vus
S'PRP'
tp1909
aa(lp1910
(VI
S'PRP'
tp1911
a(Vwill
S'MD'
tp1912
a(Vkeep
S'VB'
tp1913
a(Ve-very-thing
S'NN'
tp1914
aa(lp1915
(VYou
S'PRP'
tp1916
a(Vgive
S'VBP'
tp1917
a(Vme
S'PRP'
tp1918
aa(lp1919
(VTil
S'IN'
tp1920
a(Vthe
S'DT'
tp1921
a(Vtime
S'NN'
tp1922
aa(lp1923
(VWe
S'PRP'
tp1924
a(Vlet
S'VBP'
tp1925
a(Vgo
S'VB'
tp1926
aa(lp1927
(VBreathe
S'NNP'
tp1928
a(Vthrough
S'IN'
tp1929
a(Vme
S'PRP'
tp1930
aa(lp1931
(VFill
S'NNP'
tp1932
a(Vup
S'RP'
tp1933
a(Vyour
S'PRP$'
tp1934
a(Vlungs
S'NNS'
tp1935
a(Vwith
S'IN'
tp1936
a(Vus
S'PRP'
tp1937
aa(lp1938
(VI
S'PRP'
tp1939
a(Vwill
S'MD'
tp1940
a(Vkeep
S'VB'
tp1941
a(Ve-very-thing
S'NN'
tp1942
aa(lp1943
(VYou
S'PRP'
tp1944
a(Vgive
S'VBP'
tp1945
a(Vme
S'PRP'
tp1946
aa(lp1947
(VTil
S'IN'
tp1948
a(Vthe
S'DT'
tp1949
a(Vtime
S'NN'
tp1950
aa(lp1951
(VWe
S'PRP'
tp1952
a(Vlet
S'VBP'
tp1953
a(Vgo
S'VB'
tp1954
aa(lp1955
(VKeep
S'VB'
tp1956
a(Vme
S'PRP'
tp1957
aa(lp1958
(VIn
S'IN'
tp1959
a(Vyour
S'PRP$'
tp1960
a(Veyeline
S'NN'
tp1961
aa(lp1962
(VKeep
S'VB'
tp1963
a(Vbelieving
S'NN'
tp1964
aa(lp1965
(VWhat
S'WP'
tp1966
a(Vyou
S'PRP'
tp1967
a(Vsaid
S'VBD'
tp1968
a(Vbefore
S'IN'
tp1969
aa(lp1970
(VI
S'PRP'
tp1971
a(Vwo
S'MD'
tp1972
a(Vn't
S'RB'
tp1973
aa(lp1974
(VChange
S'NNP'
tp1975
a(Vdirection
S'NN'
tp1976
aa(lp1977
(VI
S'PRP'
tp1978
a(Vwill
S'MD'
tp1979
a(Vtell
S'VB'
tp1980
a(Vyou
S'PRP'
tp1981
aa(lp1982
(VThat
S'DT'
tp1983
a(Veverything\u2019s
S'VBZ'
tp1984
a(Vmoving
S'VBG'
tp1985
a(Vtoo
S'RB'
tp1986
a(Vslowly
S'RB'
tp1987
aa(lp1988
(VJust
S'RB'
tp1989
a(Vanother
S'DT'
tp1990
a(Vlie
S'NN'
tp1991
aa(lp1992
(VOne
S'CD'
tp1993
a(Vmore
S'JJR'
tp1994
a(Vuntruth
S'NN'
tp1995
aa(lp1996
(VYou
S'PRP'
tp1997
a(Vwon\u2019t
S'VBP'
p1998
tp1999
a(Vever
S'RB'
tp2000
a(Vsee
g1998
tp2001
a(Vthrough
S'IN'
tp2002
a(Vme
S'PRP'
tp2003
aa(lp2004
(VYou
S'PRP'
tp2005
a(Vwill
S'MD'
tp2006
a(Vstill
S'RB'
tp2007
a(Vdrink
S'VB'
tp2008
a(Vit
S'PRP'
tp2009
a(Vin
S'IN'
tp2010
aa(lp2011
(VBreathe
S'NNP'
tp2012
a(Vthrough
S'IN'
tp2013
a(Vme
S'PRP'
tp2014
aa(lp2015
(VFill
S'NNP'
tp2016
a(Vup
S'RP'
tp2017
a(Vyour
S'PRP$'
tp2018
a(Vlungs
S'NNS'
tp2019
a(Vwith
S'IN'
tp2020
a(Vus
S'PRP'
tp2021
aa(lp2022
(VI
S'PRP'
tp2023
a(Vwill
S'MD'
tp2024
a(Vkeep
S'VB'
tp2025
a(Ve-very-thing
S'NN'
tp2026
aa(lp2027
(VYou
S'PRP'
tp2028
a(Vgive
S'VBP'
tp2029
a(Vme
S'PRP'
tp2030
aa(lp2031
(VTil
S'IN'
tp2032
a(Vthe
S'DT'
tp2033
a(Vtime
S'NN'
tp2034
aa(lp2035
(VWe
S'PRP'
tp2036
a(Vlet
S'VBP'
tp2037
a(Vgo
S'VB'
tp2038
aa(lp2039
(VYou
S'PRP'
tp2040
a(Vknow
S'VBP'
tp2041
a(Vthat
S'IN'
tp2042
aa(lp2043
(VThis
S'DT'
tp2044
a(Vwill
S'MD'
tp2045
a(Vbreak
S'VB'
tp2046
a(Vus
S'PRP'
tp2047
aa(lp2048
(VBut
S'CC'
tp2049
a(Vyou
S'PRP'
tp2050
a(Vpush
S'VBP'
tp2051
a(Vus
S'PRP'
tp2052
aa(lp2053
(VAs
S'RB'
tp2054
a(Vfar
S'RB'
tp2055
a(Vas
S'IN'
tp2056
a(Vwe
S'PRP'
tp2057
a(Vcan
S'MD'
tp2058
a(Vgo
S'VB'
tp2059
aa(lp2060
(VTaking
S'VBG'
tp2061
aa(lp2062
(VEvery
S'DT'
tp2063
a(Vchance
S'NN'
tp2064
a(Vto
S'TO'
tp2065
aa(lp2066
(VFind
S'CD'
tp2067
a(Vsolutions
S'NNS'
tp2068
aa(lp2069
(VThat
S'DT'
tp2070
a(Vnever
S'RB'
tp2071
a(Vmake
S'VBP'
tp2072
a(Vanyone
S'NN'
tp2073
a(Vhappy
S'JJ'
tp2074
aa(lp2075
(VWe
S'PRP'
tp2076
a(Vare
S'VBP'
tp2077
a(Vdone
S'VBN'
tp2078
a(Vthis
S'DT'
tp2079
a(Vtime
S'NN'
tp2080
aa(lp2081
(VYou
S'PRP'
tp2082
a(Vdon\u2019t
S'VBP'
tp2083
a(Vowe
S'IN'
tp2084
a(Vme
S'PRP'
tp2085
aa(lp2086
(VTake
S'VB'
tp2087
a(Va
S'DT'
tp2088
aa(lp2089
(VFinal
S'JJ'
tp2090
a(Vtook
S'VBD'
tp2091
a(Vat
S'IN'
tp2092
a(Vme
S'PRP'
tp2093
aa(lp2094
(VTake
S'VB'
tp2095
a(Vit
S'PRP'
tp2096
aasVTether (Eric Prydz Vs.\u2026
p2097
(lp2098
(lp2099
(VFeeling
S'VBG'
tp2100
a(Vcapable
S'JJ'
tp2101
a(Vof
S'IN'
tp2102
aa(lp2103
(Vseeing
S'VBG'
tp2104
a(Vthe
S'DT'
tp2105
a(Vend
S'NN'
tp2106
aa(lp2107
(VFeeling
S'VBG'
tp2108
a(Vcapable
S'JJ'
tp2109
a(Vof
S'IN'
tp2110
aa(lp2111
(Vsaying
S'VBG'
tp2112
a(V``
S'``'
tp2113
a(Vit
S'PRP'
tp2114
a(V's
S'VBZ'
tp2115
a(Vover
S'RP'
tp2116
a(V''
S"''"
tp2117
aa(lp2118
(VFeeling
S'VBG'
tp2119
a(Vcapable
S'JJ'
tp2120
a(Vof
S'IN'
tp2121
aa(lp2122
(Vseeing
S'VBG'
tp2123
a(Vthe
S'DT'
tp2124
a(Vend
S'NN'
tp2125
aa(lp2126
(VFeeling
S'VBG'
tp2127
a(Vcapable
S'JJ'
tp2128
a(Vof
S'IN'
tp2129
aa(lp2130
(Vsaying
S'VBG'
tp2131
a(V``
S'``'
tp2132
a(Vit
S'PRP'
tp2133
a(V's
S'VBZ'
tp2134
a(Vover
S'RP'
tp2135
a(V''
S"''"
tp2136
aa(lp2137
(VFeeling
S'VBG'
tp2138
a(Vcapable
S'JJ'
tp2139
a(Vof
S'IN'
tp2140
aa(lp2141
(Vseeing
S'VBG'
tp2142
a(Vthe
S'DT'
tp2143
a(Vend
S'NN'
tp2144
aa(lp2145
(VFeeling
S'VBG'
tp2146
a(Vcapable
S'JJ'
tp2147
a(Vof
S'IN'
tp2148
aa(lp2149
(Vsaying
S'VBG'
tp2150
a(V``
S'``'
tp2151
a(Vit
S'PRP'
tp2152
a(V's
S'VBZ'
tp2153
a(Vover
S'RP'
tp2154
a(V''
S"''"
tp2155
aa(lp2156
(Vsaying
S'VBG'
tp2157
a(V``
S'``'
tp2158
a(Vit
S'PRP'
tp2159
a(V's
S'VBZ'
tp2160
a(Vover
S'RP'
tp2161
a(V''
S"''"
tp2162
aa(lp2163
(Vsaying
S'VBG'
tp2164
a(V``
S'``'
tp2165
a(Vit
S'PRP'
tp2166
a(V's
S'VBZ'
tp2167
a(Vover
S'RP'
tp2168
a(V''
S"''"
tp2169
aa(lp2170
(Vsaying
S'VBG'
tp2171
a(V``
S'``'
tp2172
a(Vit
S'PRP'
tp2173
a(V's
S'VBZ'
tp2174
a(Vover
S'RP'
tp2175
a(V''
S"''"
tp2176
aa(lp2177
(Vsaying
S'VBG'
tp2178
a(V``
S'``'
tp2179
a(Vit
S'PRP'
tp2180
a(V's
S'VBZ'
tp2181
a(Vover
S'RP'
tp2182
a(V''
S"''"
tp2183
aa(lp2184
(Vsaying
S'VBG'
tp2185
a(V``
S'``'
tp2186
a(Vit
S'PRP'
tp2187
a(V's
S'VBZ'
tp2188
a(Vover
S'RP'
tp2189
a(V''
S"''"
tp2190
aa(lp2191
(VFeeling
S'VBG'
tp2192
a(Vcapable
S'JJ'
tp2193
a(Vof
S'IN'
tp2194
aa(lp2195
(Vseeing
S'VBG'
tp2196
a(Vthe
S'DT'
tp2197
a(Vend
S'NN'
tp2198
aa(lp2199
(VFeeling
S'VBG'
tp2200
a(Vcapable
S'JJ'
tp2201
a(Vof
S'IN'
tp2202
aa(lp2203
(Vsaying
S'VBG'
tp2204
a(V``
S'``'
tp2205
a(Vit
S'PRP'
tp2206
a(V's
S'VBZ'
tp2207
a(Vover
S'RP'
tp2208
a(V''
S"''"
tp2209
aa(lp2210
(VFeeling
S'VBG'
tp2211
a(Vcapable
S'JJ'
tp2212
a(Vof
S'IN'
tp2213
aa(lp2214
(Vseeing
S'VBG'
tp2215
a(Vthe
S'DT'
tp2216
a(Vend
S'NN'
tp2217
aa(lp2218
(VFeeling
S'VBG'
tp2219
a(Vcapable
S'JJ'
tp2220
a(Vof
S'IN'
tp2221
aa(lp2222
(Vsaying
S'VBG'
tp2223
a(V``
S'``'
tp2224
a(Vit
S'PRP'
tp2225
a(V's
S'VBZ'
tp2226
a(Vover
S'RP'
tp2227
a(V''
S"''"
tp2228
aa(lp2229
(Vsaying
S'VBG'
tp2230
a(V``
S'``'
tp2231
a(Vit
S'PRP'
tp2232
a(V's
S'VBZ'
tp2233
a(Vover
S'RP'
tp2234
a(V''
S"''"
tp2235
aa(lp2236
(Vsaying
S'VBG'
tp2237
a(V``
S'``'
tp2238
a(Vit
S'PRP'
tp2239
a(V's
S'VBZ'
tp2240
a(Vover
S'RP'
tp2241
a(V''
S"''"
tp2242
aa(lp2243
(Vsaying
S'VBG'
tp2244
a(V``
S'``'
tp2245
a(Vit
S'PRP'
tp2246
a(V's
S'VBZ'
tp2247
a(Vover
S'RP'
tp2248
a(V''
S"''"
tp2249
aa(lp2250
(Vsaying
S'VBG'
tp2251
a(V``
S'``'
tp2252
a(Vit
S'PRP'
tp2253
a(V's
S'VBZ'
tp2254
a(Vover
S'RP'
tp2255
a(V''
S"''"
tp2256
aasVFollow You
p2257
(lp2258
(lp2259
(VTake
S'VB'
tp2260
a(Vyour
S'PRP$'
tp2261
a(Vtime
S'NN'
tp2262
a(Vwatching
S'VBG'
tp2263
a(Vover
S'IN'
tp2264
a(Vyou
S'PRP'
tp2265
aa(lp2266
(VWaiting
S'VBG'
tp2267
a(Vfor
S'IN'
p2268
tp2269
a(Va
S'DT'
tp2270
a(Vload
S'NN'
tp2271
a(VI
S'PRP'
tp2272
a(Vwill
S'MD'
tp2273
a(Vtake
S'VB'
tp2274
a(Vfor
g2268
tp2275
a(Vyou
S'PRP'
tp2276
aa(lp2277
(VStep
S'NN'
p2278
tp2279
a(Vby
S'IN'
tp2280
a(Vstep
g2278
tp2281
a(VI
S'PRP'
tp2282
a(Vwill
S'MD'
tp2283
a(Vshadow
S'VB'
tp2284
a(Vyou
S'PRP'
tp2285
aa(lp2286
(VYou
S'PRP'
tp2287
a(Vcan
S'MD'
tp2288
a(Vhold
S'VB'
p2289
tp2290
a(Vyour
S'PRP$'
tp2291
a(Vown
S'JJ'
tp2292
a(V,
S','
tp2293
a(VI
S'PRP'
tp2294
a(Vwill
S'MD'
tp2295
a(Vonly
S'RB'
tp2296
a(Vdo
g2289
tp2297
aa(lp2298
(VIn
S'IN'
tp2299
a(Vyour
S'PRP$'
tp2300
a(Vname
S'NN'
tp2301
a(V,
S','
tp2302
a(VI
S'PRP'
tp2303
a(Vwill
S'MD'
tp2304
a(Vcover
S'VB'
tp2305
a(Vyou
S'PRP'
tp2306
aa(lp2307
(VWaiting
S'VBG'
tp2308
a(Vfor
S'IN'
p2309
tp2310
a(Vthe
S'DT'
tp2311
a(Vblame
S'NN'
tp2312
a(VI
S'PRP'
tp2313
a(Vwill
S'MD'
tp2314
a(Vtake
S'VB'
tp2315
a(Vfor
g2309
tp2316
a(Vyou
S'PRP'
tp2317
aa(lp2318
(VAll
S'DT'
tp2319
a(VI
S'PRP'
tp2320
a(Vneed
S'VBP'
tp2321
a(Vis
S'VBZ'
tp2322
a(Vto
S'TO'
tp2323
a(Vcarry
S'VB'
tp2324
a(Vyou
S'PRP'
tp2325
aa(lp2326
(VYou
S'PRP'
tp2327
a(Vcan
S'MD'
tp2328
a(Vhold
S'VB'
p2329
tp2330
a(Vyour
S'PRP$'
tp2331
a(Vown
S'JJ'
tp2332
a(V,
S','
tp2333
a(VI
S'PRP'
tp2334
a(Vwill
S'MD'
tp2335
a(Vhold
g2329
tp2336
a(Vit
S'PRP'
tp2337
a(Vtoo
S'RB'
tp2338
aa(lp2339
(VOnly
S'RB'
tp2340
a(Vwant
S'VB'
tp2341
a(Vwhat
S'WP'
tp2342
a(Vyou
S'PRP'
p2343
tp2344
a(Vknow
S'VBP'
p2345
tp2346
a(Vyou
g2343
tp2347
a(Vneed
g2345
tp2348
aa(lp2349
(VI
S'PRP'
tp2350
a(Vbegin
S'VBP'
tp2351
a(Vto
S'TO'
tp2352
a(Vsee
S'VB'
tp2353
aa(lp2354
(VI
S'PRP'
tp2355
a(Vlook
S'VBP'
tp2356
a(Vinto
S'IN'
tp2357
a(Vyou
S'PRP'
p2358
tp2359
a(Vand
S'CC'
tp2360
a(Vknow
S'VB'
tp2361
a(Vwhat
S'WP'
tp2362
a(Vyou
g2358
tp2363
a(V're
S'VBP'
tp2364
a(Vasking
S'VBG'
tp2365
a(Vfor
S'IN'
tp2366
aa(lp2367
(VYou
S'PRP'
tp2368
a(Vwant
S'VBP'
p2369
tp2370
a(Vwhat
S'WP'
tp2371
a(Vyou
S'PRP'
p2372
tp2373
a(Vknow
g2369
tp2374
a(Vyou
g2372
tp2375
a(Vneed
g2369
tp2376
aa(lp2377
(VI
S'PRP'
tp2378
a(Vbegin
S'VBP'
tp2379
a(Vto
S'TO'
tp2380
a(Vsee
S'VB'
tp2381
aa(lp2382
(VI
S'PRP'
tp2383
a(Vlook
S'VBP'
tp2384
a(Vinto
S'IN'
tp2385
a(Vyou
S'PRP'
p2386
tp2387
a(Vand
S'CC'
tp2388
a(Vfollow
S'VB'
tp2389
a(Vyou
g2386
tp2390
a(Vthrough
S'IN'
tp2391
a(Vthe
S'DT'
tp2392
a(Vdark
S'NN'
tp2393
aa(lp2394
(VChanging
S'VBG'
tp2395
a(Vmind
S'NN'
tp2396
a(V,
S','
tp2397
a(Vlike
S'IN'
tp2398
a(Vyou
S'PRP'
tp2399
a(Valways
S'RB'
tp2400
a(Vdo
S'VBP'
tp2401
aa(lp2402
(VWaiting
S'VBG'
tp2403
a(Vfor
S'IN'
p2404
tp2405
a(Vthe
S'DT'
tp2406
a(Vblow
S'NN'
tp2407
a(VI
S'PRP'
tp2408
a(Vwill
S'MD'
tp2409
a(Vtake
S'VB'
tp2410
a(Vfor
g2404
tp2411
a(Vyou
S'PRP'
tp2412
aa(lp2413
(VBlinding
S'VBG'
p2414
tp2415
a(Vlights
S'NNS'
tp2416
a(Vwashing
g2414
tp2417
a(Vover
S'IN'
tp2418
a(Vyou
S'PRP'
tp2419
aa(lp2420
(VYou
S'PRP'
tp2421
a(Vcan
S'MD'
tp2422
a(Vhold
S'VB'
p2423
tp2424
a(Vyour
S'PRP$'
tp2425
a(Vown
S'JJ'
tp2426
a(Vand
S'CC'
tp2427
a(VI
S'PRP'
tp2428
a(Vwill
S'MD'
tp2429
a(Vhold
g2423
tp2430
a(Vit
S'PRP'
tp2431
a(Vtoo
S'RB'
tp2432
aa(lp2433
(VOnly
S'RB'
tp2434
a(Vwant
S'VB'
tp2435
a(Vwhat
S'WP'
tp2436
a(Vyou
S'PRP'
p2437
tp2438
a(Vknow
S'VBP'
p2439
tp2440
a(Vyou
g2437
tp2441
a(Vneed
g2439
tp2442
aa(lp2443
(VI
S'PRP'
tp2444
a(Vbegin
S'VBP'
tp2445
a(Vto
S'TO'
tp2446
a(Vsee
S'VB'
tp2447
aa(lp2448
(VI
S'PRP'
tp2449
a(Vlook
S'VBP'
tp2450
a(Vinto
S'IN'
tp2451
a(Vyou
S'PRP'
p2452
tp2453
a(Vand
S'CC'
tp2454
a(Vknow
S'VB'
tp2455
a(Vwhat
S'WP'
tp2456
a(Vyou
g2452
tp2457
a(V're
S'VBP'
tp2458
a(Vasking
S'VBG'
tp2459
a(Vfor
S'IN'
tp2460
aa(lp2461
(VYou
S'PRP'
tp2462
a(Vwant
S'VBP'
p2463
tp2464
a(Vwhat
S'WP'
tp2465
a(Vyou
S'PRP'
p2466
tp2467
a(Vknow
g2463
tp2468
a(Vyou
g2466
tp2469
a(Vneed
g2463
tp2470
aa(lp2471
(VI
S'PRP'
tp2472
a(Vbegin
S'VBP'
tp2473
a(Vto
S'TO'
tp2474
a(Vsee
S'VB'
tp2475
aa(lp2476
(VI
S'PRP'
tp2477
a(Vlook
S'VBP'
tp2478
a(Vinto
S'IN'
tp2479
a(Vand
S'CC'
tp2480
a(Vfollow
S'VB'
tp2481
a(Vyou
S'PRP'
tp2482
a(Vthrough
S'IN'
tp2483
a(Vthe
S'DT'
tp2484
a(Vdark
S'NN'
tp2485
aa(lp2486
(VYou
S'PRP'
tp2487
a(Vwant
S'VBP'
p2488
tp2489
a(Vwhat
S'WP'
tp2490
a(Vyou
S'PRP'
p2491
tp2492
a(Vknow
g2488
tp2493
a(Vyou
g2491
tp2494
a(Vneed
g2488
tp2495
aa(lp2496
(VI
S'PRP'
tp2497
a(Vbegin
S'VBP'
tp2498
a(Vto
S'TO'
tp2499
a(Vsee
S'VB'
tp2500
aa(lp2501
(VI
S'PRP'
tp2502
a(Vlook
S'VBP'
tp2503
a(Vinto
S'IN'
tp2504
a(Vyou
S'PRP'
p2505
tp2506
a(Vand
S'CC'
tp2507
a(Vknow
S'VB'
tp2508
a(Vwhat
S'WP'
tp2509
a(Vyou
g2505
tp2510
a(V're
S'VBP'
tp2511
a(Vasking
S'VBG'
tp2512
a(Vfor
S'IN'
tp2513
aa(lp2514
(VYou
S'PRP'
tp2515
a(Vwant
S'VBP'
p2516
tp2517
a(Vwhat
S'WP'
tp2518
a(Vyou
S'PRP'
p2519
tp2520
a(Vknow
g2516
tp2521
a(Vyou
g2519
tp2522
a(Vneed
g2516
tp2523
aa(lp2524
(VI
S'PRP'
tp2525
a(Vbegin
S'VBP'
tp2526
a(Vto
S'TO'
tp2527
a(Vsee
S'VB'
tp2528
aa(lp2529
(VI
S'PRP'
tp2530
a(Vlook
S'VBP'
tp2531
a(Vinto
S'IN'
tp2532
a(Vyou
S'PRP'
p2533
tp2534
a(Vand
S'CC'
tp2535
a(Vfollow
S'VB'
tp2536
a(Vyou
g2533
tp2537
a(Vthrough
S'IN'
tp2538
a(Vthe
S'DT'
tp2539
a(Vdark
S'NN'
tp2540
aa(lp2541
(VSee
S'VB'
tp2542
a(Vthe
S'DT'
tp2543
a(Vdark
S'NN'
tp2544
aa(lp2545
(VSee
S'VB'
tp2546
a(Vthe
S'DT'
tp2547
a(Vdark
S'NN'
tp2548
aa(lp2549
(VSee
S'VB'
tp2550
a(Vthe
S'DT'
tp2551
a(Vdark
S'NN'
tp2552
aa(lp2553
(VSee
S'VB'
tp2554
a(Vthe
S'DT'
tp2555
a(Vdark
S'NN'
tp2556
aa(lp2557
(VSee
S'VB'
tp2558
a(Vthe
S'DT'
tp2559
a(Vdark
S'NN'
tp2560
aasVAfterglow
p2561
(lp2562
(lp2563
(VAll
S'DT'
tp2564
a(Vof
S'IN'
tp2565
a(Vthe
S'DT'
tp2566
a(Vblack
S'JJ'
tp2567
a(Vand
S'CC'
tp2568
a(Vwhite
S'JJ'
tp2569
aa(lp2570
(VAll
S'DT'
tp2571
a(Vof
S'IN'
tp2572
a(Vthe
S'DT'
tp2573
a(Vcontours
S'NNS'
tp2574
aa(lp2575
(VAre
S'NNP'
tp2576
a(Vlaid
S'VBN'
tp2577
a(Vout
S'RP'
tp2578
a(Vbefore
S'IN'
tp2579
a(Vme
S'PRP'
tp2580
a(Vnow
S'RB'
tp2581
aa(lp2582
(VTo
S'TO'
tp2583
a(Vleave
S'VB'
tp2584
a(Va
S'DT'
tp2585
a(Vtrace
S'NN'
tp2586
aa(lp2587
(VWith
S'IN'
tp2588
a(Vall
S'DT'
tp2589
a(Vof
S'IN'
tp2590
a(Vthe
S'DT'
tp2591
a(Vlight
S'NN'
p2592
tp2593
a(Vand
S'CC'
tp2594
a(Vshade
g2592
tp2595
aa(lp2596
(VWe
S'PRP'
tp2597
a(Vtake
S'VBP'
tp2598
a(Vup
S'RP'
tp2599
a(Vour
S'PRP$'
tp2600
a(Vown
S'JJ'
tp2601
a(Vspace
S'NN'
tp2602
aa(lp2603
(VI
S'PRP'
tp2604
a(V'll
S'MD'
tp2605
a(Vfind
S'VB'
tp2606
a(Vmy
S'PRP$'
tp2607
a(Vown
S'JJ'
tp2608
a(Vway
S'NN'
tp2609
a(Vback
S'RB'
tp2610
aa(lp2611
(VBack
S'RB'
tp2612
a(Vto
S'TO'
tp2613
a(Vthe
S'DT'
tp2614
a(Vpast
S'JJ'
tp2615
a(Vtense
S'NN'
tp2616
aa(lp2617
(VA
S'DT'
tp2618
a(Vlifeline
S'NN'
tp2619
a(Vto
S'TO'
tp2620
a(Vhighs
S'NNS'
p2621
tp2622
a(Vand
S'CC'
tp2623
a(Vlows
g2621
tp2624
aa(lp2625
(VTo
S'TO'
tp2626
a(Vseeing
S'VBG'
tp2627
a(Vthe
S'DT'
tp2628
a(Vbright
S'JJ'
tp2629
a(Vside
S'NN'
tp2630
aa(lp2631
(VAnd
S'CC'
tp2632
a(VI
S'PRP'
tp2633
a(Vshould
S'MD'
tp2634
a(Vknow
S'VB'
tp2635
aa(lp2636
(VWe
S'PRP'
tp2637
a(Vwait
S'VBP'
tp2638
a(Vfor
S'IN'
tp2639
a(Vthe
S'DT'
tp2640
a(Vafterglow
S'NN'
tp2641
aa(lp2642
(VTo
S'TO'
tp2643
a(Vcover
S'VB'
tp2644
a(Vthe
S'DT'
tp2645
a(Vblind
S'JJ'
tp2646
a(Vside
S'NN'
tp2647
aa(lp2648
(VAnd
S'CC'
tp2649
a(VI
S'PRP'
tp2650
a(Vshould
S'MD'
tp2651
a(Vknow
S'VB'
tp2652
aa(lp2653
(VAll
S'DT'
tp2654
a(Vof
S'IN'
tp2655
a(Vthe
S'DT'
tp2656
a(Vempty
S'JJ'
tp2657
a(Vthoughts
S'NNS'
tp2658
aa(lp2659
(VAll
S'DT'
tp2660
a(Vof
S'IN'
tp2661
a(Vthe
S'DT'
tp2662
a(Voutlines
S'NNS'
tp2663
aa(lp2664
(VAre
S'NNP'
tp2665
a(Vlaid
S'VBN'
tp2666
a(Vout
S'RP'
tp2667
a(Vbefore
S'IN'
tp2668
a(Vus
S'PRP'
tp2669
a(Vnow
S'RB'
tp2670
aa(lp2671
(VTo
S'TO'
tp2672
a(Vleave
S'VB'
tp2673
a(Va
S'DT'
tp2674
a(Vtrace
S'NN'
tp2675
aa(lp2676
(VAll
S'DT'
tp2677
a(Vof
S'IN'
tp2678
a(Vyour
S'PRP$'
tp2679
a(Vwords
S'NNS'
tp2680
a(Vand
S'CC'
tp2681
a(Vmine
S'NN'
tp2682
aa(lp2683
(VThey
S'PRP'
tp2684
a(Vkeep
S'VBP'
tp2685
a(Vreturning
S'VBG'
tp2686
aa(lp2687
(VI
S'PRP'
tp2688
a(V'll
S'MD'
tp2689
a(Vfind
S'VB'
tp2690
a(Vmy
S'PRP$'
tp2691
a(Vown
S'JJ'
tp2692
a(Vway
S'NN'
tp2693
a(Vback
S'RB'
tp2694
aa(lp2695
(VBack
S'RB'
tp2696
a(Vto
S'TO'
tp2697
a(Vthe
S'DT'
tp2698
a(Vsilence
S'NN'
tp2699
aa(lp2700
(VA
S'DT'
tp2701
a(Vlifeline
S'NN'
tp2702
a(Vto
S'TO'
tp2703
a(Vhighs
S'NNS'
p2704
tp2705
a(Vand
S'CC'
tp2706
a(Vlows
g2704
tp2707
aa(lp2708
(VTo
S'TO'
tp2709
a(Vseeing
S'VBG'
tp2710
a(Vthe
S'DT'
tp2711
a(Vbright
S'JJ'
tp2712
a(Vside
S'NN'
tp2713
aa(lp2714
(VAnd
S'CC'
tp2715
a(VI
S'PRP'
tp2716
a(Vshould
S'MD'
tp2717
a(Vknow
S'VB'
tp2718
aa(lp2719
(VWe
S'PRP'
tp2720
a(Vwait
S'VBP'
tp2721
a(Vfor
S'IN'
tp2722
a(Vthe
S'DT'
tp2723
a(Vafterglow
S'NN'
tp2724
aa(lp2725
(VTo
S'TO'
tp2726
a(Vcover
S'VB'
tp2727
a(Vthe
S'DT'
tp2728
a(Vblind
S'JJ'
tp2729
a(Vside
S'NN'
tp2730
aa(lp2731
(VAnd
S'CC'
tp2732
a(VI
S'PRP'
tp2733
a(Vshould
S'MD'
tp2734
a(Vknow
S'VB'
tp2735
aa(lp2736
(VI
S'PRP'
p2737
tp2738
a(V've
S'VBP'
tp2739
a(Vgiven
S'VBN'
tp2740
a(Vup
S'RP'
tp2741
a(Vall
S'DT'
tp2742
a(VI
g2737
tp2743
a(Vcan
S'MD'
tp2744
aa(lp2745
(VI
S'PRP'
p2746
tp2747
a(V've
S'VBP'
tp2748
a(Vgiven
S'VBN'
tp2749
a(Vup
S'RP'
tp2750
a(Vall
S'DT'
tp2751
a(VI
g2746
tp2752
a(Vcan
S'MD'
tp2753
aa(lp2754
(VI
S'PRP'
p2755
tp2756
a(V've
S'VBP'
tp2757
a(Vgiven
S'VBN'
tp2758
a(Vup
S'RP'
tp2759
a(Vall
S'DT'
tp2760
a(VI
g2755
tp2761
a(Vcan
S'MD'
tp2762
aa(lp2763
(VI
S'PRP'
p2764
tp2765
a(V've
S'VBP'
tp2766
a(Vgiven
S'VBN'
tp2767
a(Vup
S'RP'
tp2768
a(Vall
S'DT'
tp2769
a(VI
g2764
tp2770
a(Vcan
S'MD'
tp2771
aasVClearest Blue
p2772
(lp2773
(lp2774
(VLight
S'NNP'
tp2775
a(Vis
S'VBZ'
tp2776
a(Vall
S'DT'
tp2777
a(Vover
S'IN'
tp2778
a(Vus
S'PRP'
tp2779
aa(lp2780
(VLike
S'IN'
tp2781
a(Vit
S'PRP'
tp2782
a(Valways
S'RB'
tp2783
a(Vwas
S'VBD'
tp2784
aa(lp2785
(VLike
S'IN'
tp2786
a(Vit
S'PRP'
tp2787
a(Valways
S'RB'
tp2788
a(Vwas
S'VBD'
tp2789
aa(lp2790
(VShaped
S'VBN'
tp2791
a(Vby
S'IN'
tp2792
a(Vthe
S'DT'
tp2793
a(Vclearest
S'NN'
p2794
tp2795
a(Vblue
g2794
tp2796
aa(lp2797
(VBut
S'CC'
tp2798
a(Vit
S'PRP'
tp2799
a(V's
S'VBZ'
tp2800
a(Vnot
S'RB'
tp2801
a(Venough
S'JJ'
tp2802
aa(lp2803
(VIt
S'PRP'
tp2804
a(V's
S'VBZ'
tp2805
a(Vnot
S'RB'
p2806
tp2807
a(Venough
S'RB'
p2808
tp2809
a(V,
S','
tp2810
a(Vnot
g2806
tp2811
a(Venough
g2808
tp2812
aa(lp2813
(VJust
S'RB'
p2814
tp2815
a(Vanother
S'DT'
tp2816
a(Vtime
S'NN'
tp2817
a(VI
S'PRP'
tp2818
a(V'm
S'VBP'
tp2819
a(Vcaught
S'JJ'
p2820
tp2821
a(Vinside
g2814
tp2822
a(Vevery
S'DT'
tp2823
a(Vopen
g2820
tp2824
a(Veye
S'NN'
tp2825
aa(lp2826
(VHolding
S'VBG'
p2827
tp2828
a(Von
S'IN'
tp2829
a(Vtightly
S'RB'
p2830
tp2831
a(Vto
S'TO'
tp2832
a(Vthe
S'DT'
tp2833
a(Vsides
S'NNS'
tp2834
a(V,
S','
tp2835
a(Vnever
S'RB'
tp2836
a(Vquite
g2830
tp2837
a(Vlearning
g2827
tp2838
a(Vwhy
S'WRB'
tp2839
aa(lp2840
(VYou
S'PRP'
tp2841
a(V'll
S'MD'
p2842
tp2843
a(Vmeet
S'VB'
p2844
tp2845
a(Vme
S'PRP'
p2846
tp2847
a(V,
S','
tp2848
a(Vyou
S'PRP'
tp2849
a(V'll
g2842
tp2850
a(Vmeet
g2844
tp2851
a(Vme
g2846
tp2852
aa(lp2853
(VYou
S'PRP'
tp2854
a(V'll
S'MD'
tp2855
a(Vmeet
S'VB'
p2856
tp2857
a(Vme
S'PRP'
tp2858
a(Vhalfway
g2856
tp2859
aa(lp2860
(VWhenever
S'WRB'
tp2861
a(VI
S'PRP'
tp2862
a(Vfeel
S'VBP'
tp2863
a(Vit
S'PRP'
tp2864
a(Vcoming
S'VBG'
tp2865
a(Von
S'IN'
tp2866
a(V,
S','
tp2867
a(Vyou
S'PRP'
tp2868
a(Vcan
S'MD'
tp2869
a(Vbe
S'VB'
tp2870
a(Vwell
S'RB'
tp2871
a(Vaware
S'JJ'
tp2872
aa(lp2873
(VIf
S'IN'
tp2874
a(Vever
S'RB'
tp2875
a(VI
S'PRP'
tp2876
a(Vtry
S'VBP'
tp2877
a(Vto
S'TO'
tp2878
a(Vpush
S'VB'
p2879
tp2880
a(Vaway
S'RB'
tp2881
a(V,
S','
tp2882
a(Vyou
S'PRP'
tp2883
a(Vcan
S'MD'
tp2884
a(Vjust
S'RB'
tp2885
a(Vkeep
g2879
tp2886
a(Vme
S'PRP'
tp2887
a(Vthere
S'EX'
tp2888
aa(lp2889
(VSo
S'RB'
tp2890
a(Vplease
S'JJ'
tp2891
a(Vsay
S'VBP'
tp2892
a(Vyou
S'PRP'
tp2893
a(V'll
S'MD'
tp2894
a(Vmeet
S'VB'
tp2895
a(Vme
S'PRP'
tp2896
aa(lp2897
(VMeet
S'NNP'
tp2898
a(Vme
S'PRP'
tp2899
a(Vhalfway
S'VB'
tp2900
aa(lp2901
(VTied
S'VBN'
tp2902
a(Vto
S'TO'
tp2903
a(Vthe
S'DT'
tp2904
a(Vshifting
S'NN'
p2905
tp2906
a(Vground
g2905
tp2907
aa(lp2908
(VLike
S'IN'
tp2909
a(VI
S'PRP'
tp2910
a(Valways
S'RB'
tp2911
a(Vwas
S'VBD'
tp2912
aa(lp2913
(VLike
S'IN'
tp2914
a(VI
S'PRP'
tp2915
a(Valways
S'RB'
tp2916
a(Vwas
S'VBD'
tp2917
aa(lp2918
(VYou
S'PRP'
tp2919
a(Vwere
S'VBD'
tp2920
a(Vthe
S'DT'
tp2921
a(Vperfect
S'JJ'
tp2922
a(Vstorm
S'NN'
tp2923
aa(lp2924
(VBut
S'CC'
tp2925
a(Vit
S'PRP'
tp2926
a(V's
S'VBZ'
tp2927
a(Vnot
S'RB'
tp2928
a(Venough
S'JJ'
tp2929
aa(lp2930
(VIt
S'PRP'
tp2931
a(V's
S'VBZ'
tp2932
a(Vnot
S'RB'
p2933
tp2934
a(Venough
S'RB'
p2935
tp2936
a(V,
S','
tp2937
a(Vnot
g2933
tp2938
a(Venough
g2935
tp2939
a(V,
S','
tp2940
a(Vnot
g2933
tp2941
a(Venough
g2935
tp2942
aa(lp2943
(VJust
S'RB'
tp2944
a(Vanother
S'DT'
tp2945
a(Vtime
S'NN'
tp2946
a(Vthat
S'IN'
tp2947
a(VI
S'PRP'
tp2948
a(Vgo
S'VBP'
tp2949
a(Vdown
S'RP'
p2950
tp2951
a(Vbut
S'CC'
tp2952
a(Vyou
S'PRP'
tp2953
a(Vare
S'VBP'
tp2954
a(Vkeeping
S'VBG'
tp2955
a(Vup
g2950
tp2956
aa(lp2957
(VHolding
S'VBG'
tp2958
a(Vto
S'TO'
p2959
tp2960
a(Va
S'DT'
tp2961
a(Vhope
S'NN'
tp2962
a(Vyou
S'PRP'
tp2963
a(V'll
S'MD'
tp2964
a(Vundermine
S'VB'
tp2965
a(V,
S','
tp2966
a(Vnever
S'RB'
tp2967
a(Vto
g2959
tp2968
a(Vbe
S'VB'
tp2969
a(Vreversed
S'VBN'
tp2970
aa(lp2971
(VJust
S'RB'
p2972
tp2973
a(Vanother
S'DT'
tp2974
a(Vtime
S'NN'
tp2975
a(VI
S'PRP'
tp2976
a(V'm
S'VBP'
tp2977
a(Vcaught
S'JJ'
p2978
tp2979
a(Vinside
g2972
tp2980
a(Vevery
S'DT'
tp2981
a(Vopen
g2978
tp2982
a(Veye
S'NN'
tp2983
aa(lp2984
(VHolding
S'VBG'
p2985
tp2986
a(Von
S'IN'
tp2987
a(Vtightly
S'RB'
p2988
tp2989
a(Vto
S'TO'
tp2990
a(Vthe
S'DT'
tp2991
a(Vsides
S'NNS'
tp2992
a(V,
S','
tp2993
a(Vnever
S'RB'
tp2994
a(Vquite
g2988
tp2995
a(Vlearning
g2985
tp2996
a(Vwhy
S'WRB'
tp2997
aa(lp2998
(VWhenever
S'WRB'
tp2999
a(VI
S'PRP'
tp3000
a(Vfeel
S'VBP'
tp3001
a(Vit
S'PRP'
tp3002
a(Vcoming
S'VBG'
tp3003
a(Von
S'IN'
tp3004
a(V,
S','
tp3005
a(Vyou
S'PRP'
tp3006
a(Vcan
S'MD'
tp3007
a(Vbe
S'VB'
tp3008
a(Vwell
S'RB'
tp3009
a(Vaware
S'JJ'
tp3010
aa(lp3011
(VIf
S'IN'
tp3012
a(Vever
S'RB'
tp3013
a(VI
S'PRP'
tp3014
a(Vtry
S'VBP'
tp3015
a(Vto
S'TO'
tp3016
a(Vpush
S'VB'
p3017
tp3018
a(Vaway
S'RB'
tp3019
a(V,
S','
tp3020
a(Vyou
S'PRP'
tp3021
a(Vcan
S'MD'
tp3022
a(Vjust
S'RB'
tp3023
a(Vkeep
g3017
tp3024
a(Vme
S'PRP'
p3025
tp3026
a(V,
S','
tp3027
a(Vtell
g3017
tp3028
a(Vme
g3025
tp3029
aa(lp3030
(VTell
S'VB'
p3031
tp3032
a(Vme
S'PRP'
p3033
tp3034
a(V,
S','
tp3035
a(Vtell
g3031
tp3036
a(Vme
g3033
tp3037
a(Vyou
S'PRP'
tp3038
a(V'll
S'MD'
tp3039
a(Vmeet
g3031
tp3040
a(Vme
g3033
tp3041
aa(lp3042
(VTell
S'VB'
p3043
tp3044
a(Vme
S'PRP'
p3045
tp3046
a(V,
S','
tp3047
a(Vtell
g3043
tp3048
a(Vme
g3045
tp3049
a(Vyou
S'PRP'
tp3050
a(V'll
S'MD'
tp3051
a(Vkeep
g3043
tp3052
a(Vme
g3045
tp3053
aa(lp3054
(VTell
S'VB'
p3055
tp3056
a(Vme
S'PRP'
p3057
tp3058
a(V,
S','
tp3059
a(Vtell
g3055
tp3060
a(Vme
g3057
tp3061
a(Vyou
S'PRP'
tp3062
a(V'll
S'MD'
tp3063
a(Vmeet
g3055
tp3064
a(Vme
g3057
tp3065
aa(lp3066
(VWill
S'MD'
tp3067
a(Vyou
S'PRP'
tp3068
a(Vmeet
S'VB'
p3069
tp3070
a(Vme
S'PRP'
tp3071
a(Vmore
S'JJR'
tp3072
a(Vthan
S'IN'
tp3073
a(Vhalfway
g3069
tp3074
a(Vup
S'RP'
tp3075
a(V?
S'.'
tp3076
aa(lp3077
(V...
S':'
tp3078
aa(lp3079
(VShaped
S'VBN'
tp3080
aa(lp3081
(VBy
S'IN'
tp3082
aa(lp3083
(VClearest
S'NNP'
tp3084
a(Vblue
S'NN'
tp3085
aa(lp3086
(VShaped
S'VBN'
tp3087
aa(lp3088
(VBy
S'IN'
tp3089
aa(lp3090
(VClearest
S'NNP'
tp3091
a(Vblue
S'NN'
tp3092
aa(lp3093
(VShaped
S'VBN'
tp3094
aa(lp3095
(VWill
S'MD'
tp3096
a(Vyou
S'PRP'
tp3097
a(Vkeep
S'VB'
tp3098
a(Vit
S'PRP'
tp3099
a(V,
S','
tp3100
a(Vhalf-a-way
S'JJ'
tp3101
aa(lp3102
(VBy
S'IN'
tp3103
aa(lp3104
(VClearest
S'NNP'
tp3105
a(Vblue
S'NN'
tp3106
aa(lp3107
(VWill
S'MD'
tp3108
a(Vyou
S'PRP'
tp3109
a(Vkeep
S'VB'
tp3110
a(Vit
S'PRP'
tp3111
a(V,
S','
tp3112
a(Vhalf-a-way
S'JJ'
tp3113
aa(lp3114
(VShaped
S'VBN'
tp3115
aa(lp3116
(VWill
S'MD'
tp3117
a(Vyou
S'PRP'
tp3118
a(Vkeep
S'VB'
tp3119
a(Vit
S'PRP'
tp3120
a(V,
S','
tp3121
a(Vhalf-a-way
S'JJ'
tp3122
aa(lp3123
(VBy
S'IN'
tp3124
aa(lp3125
(VClearest
S'NNP'
tp3126
a(Vblue
S'NN'
tp3127
aa(lp3128
(VWill
S'MD'
tp3129
a(Vyou
S'PRP'
tp3130
a(Vkeep
S'VB'
tp3131
a(Vit
S'PRP'
tp3132
a(V,
S','
tp3133
a(Vhalf-a-way
S'JJ'
tp3134
aasVBury It
p3135
(lp3136
(lp3137
(VCover
S'NNP'
tp3138
a(Vup
S'RB'
tp3139
a(V,
S','
tp3140
a(Vcover
S'VB'
tp3141
a(Vup
S'RP'
tp3142
a(V,
S','
tp3143
aa(lp3144
(Vcover
S'VB'
tp3145
a(Vup
S'RP'
tp3146
a(VThat
S'IN'
tp3147
a(Vyou
S'PRP'
tp3148
a(V're
S'VBP'
tp3149
a(Vruthless
S'JJ'
tp3150
aa(lp3151
(VNobody
S'NN'
p3152
tp3153
a(V,
S','
tp3154
a(Vnobody
g3152
tp3155
a(V,
S','
tp3156
aa(lp3157
(Vnobody
S'NN'
p3158
tp3159
a(V's
S'POS'
tp3160
a(VEver
S'NNP'
tp3161
a(Vgon
S'FW'
tp3162
a(Vna
S'TO'
tp3163
a(Vnotice
g3158
tp3164
aa(lp3165
(VAnd
S'CC'
tp3166
a(VI
S'PRP'
tp3167
a(Vam
S'VBP'
tp3168
a(Vcatching
S'VBG'
tp3169
a(Von
S'IN'
tp3170
a(V,
S','
tp3171
aa(lp3172
(Vand
S'CC'
tp3173
a(VI
S'PRP'
tp3174
a(Vam
S'VBP'
tp3175
a(Vseeing
S'VBG'
tp3176
a(Vred
S'JJ'
tp3177
aa(lp3178
(VHow
S'WRB'
tp3179
a(Vabout
S'IN'
tp3180
a(VI
S'PRP'
p3181
tp3182
a(Vprove
S'VBP'
tp3183
a(VI
g3181
tp3184
a(V'm
S'VBP'
tp3185
a(Vright
S'JJ'
tp3186
a(V,
S','
tp3187
aa(lp3188
(Vraise
S'VB'
tp3189
a(Vit
S'PRP'
tp3190
a(Voverhead
S'JJ'
tp3191
aa(lp3192
(VAnd
S'CC'
tp3193
a(Vif
S'IN'
tp3194
a(VI
S'PRP'
tp3195
a(Vpromised
S'VBD'
tp3196
a(Vyou
S'PRP'
tp3197
a(V,
S','
tp3198
aa(lp3199
(Vthat
S'IN'
tp3200
a(Vanything
S'NN'
tp3201
a(VI
S'PRP'
tp3202
a(Vcould
S'MD'
tp3203
a(Vn't
S'RB'
tp3204
a(Vdo
S'VB'
tp3205
aa(lp3206
(VWe
S'PRP'
tp3207
a(V'd
S'MD'
tp3208
a(Vtry
S'VB'
p3209
tp3210
a(Vto
S'TO'
tp3211
a(Vbury
g3209
tp3212
a(Vit
S'PRP'
tp3213
aa(lp3214
(Vand
S'CC'
tp3215
a(Vrise
S'NN'
tp3216
a(Vabove
S'IN'
tp3217
aa(lp3218
(VBury
S'NN'
tp3219
a(Vit
S'PRP'
tp3220
a(Vand
S'CC'
tp3221
a(Vrise
S'VB'
tp3222
a(Vabove
S'IN'
tp3223
aa(lp3224
(VYou
S'PRP'
tp3225
a(V,
S','
tp3226
a(Vyou
S'PRP'
tp3227
a(Vnever
S'RB'
tp3228
a(Vpromised
S'VBD'
tp3229
a(Vme
S'PRP'
tp3230
aa(lp3231
(VYou
S'PRP'
tp3232
a(Vwould
S'MD'
tp3233
a(Vsee
S'VB'
tp3234
a(Vit
S'PRP'
tp3235
a(Vdifferently
S'RB'
tp3236
aa(lp3237
(VBury
S'NN'
tp3238
a(Vit
S'PRP'
tp3239
a(Vand
S'CC'
tp3240
a(Vrise
S'VB'
tp3241
a(Vabove
S'IN'
tp3242
aa(lp3243
(VBury
S'NN'
tp3244
a(Vit
S'PRP'
tp3245
a(Vand
S'CC'
tp3246
a(Vrise
S'VB'
tp3247
a(Vabove
S'IN'
tp3248
aa(lp3249
(VYou
S'PRP'
tp3250
a(V,
S','
tp3251
a(Vyou
S'PRP'
tp3252
a(VBury
S'VBP'
tp3253
a(Vit
S'PRP'
p3254
tp3255
a(V,
S','
tp3256
a(Vbury
S'VBZ'
p3257
tp3258
a(Vit
g3254
tp3259
a(V,
S','
tp3260
a(Vbury
g3257
tp3261
a(Vit
g3254
tp3262
aa(lp3263
(VAnd
S'CC'
tp3264
a(Vrise
S'NN'
tp3265
a(Vabove
S'IN'
tp3266
aa(lp3267
(VYou
S'PRP'
tp3268
a(Vbury
S'VBP'
tp3269
a(Vit
S'PRP'
p3270
tp3271
a(V,
S','
tp3272
a(Vbury
S'VBZ'
p3273
tp3274
a(Vit
g3270
tp3275
a(V,
S','
tp3276
a(Vbury
g3273
tp3277
a(Vit
g3270
tp3278
aa(lp3279
(VAnd
S'CC'
tp3280
a(Vrise
S'NN'
tp3281
a(Vabove
S'IN'
tp3282
aa(lp3283
(VReaching
S'VBG'
p3284
tp3285
a(V,
S','
tp3286
a(Vreaching
g3284
tp3287
a(Vfor
S'IN'
tp3288
a(V,
S','
tp3289
aa(lp3290
(Vreaching
S'VBG'
tp3291
a(Vfor
S'IN'
tp3292
a(VMy
S'NNP'
tp3293
a(Vresistance
S'NN'
tp3294
aa(lp3295
(VNobody
S'NN'
p3296
tp3297
a(V,
S','
tp3298
a(Vnobody
g3296
tp3299
a(V,
S','
tp3300
aa(lp3301
(Vnobody
S'NN'
p3302
tp3303
a(VSees
S'VBZ'
tp3304
a(Vit
S'PRP'
tp3305
a(Vat
S'IN'
tp3306
a(Va
S'DT'
tp3307
a(Vdistance
g3302
tp3308
aa(lp3309
(VAnd
S'CC'
tp3310
a(VI
S'PRP'
tp3311
a(Vam
S'VBP'
tp3312
a(Vcatching
S'VBG'
tp3313
a(Vup
S'RP'
tp3314
a(V,
S','
tp3315
aa(lp3316
(Vand
S'CC'
tp3317
a(VI
S'PRP'
tp3318
a(Vam
S'VBP'
tp3319
a(Vseeing
S'VBG'
tp3320
a(Vred
S'JJ'
tp3321
aa(lp3322
(VHow
S'WRB'
tp3323
a(Vabout
S'IN'
tp3324
a(VI
S'PRP'
tp3325
a(Vgo
S'VBP'
tp3326
a(Vmy
S'PRP$'
tp3327
a(Vway
S'NN'
tp3328
a(V,
S','
tp3329
aa(lp3330
(Vraise
S'VB'
tp3331
a(Vit
S'PRP'
tp3332
a(Voverhead
S'JJ'
tp3333
aa(lp3334
(VAnd
S'CC'
tp3335
a(Vif
S'IN'
tp3336
a(VI
S'PRP'
tp3337
a(Vpromised
S'VBD'
tp3338
a(Vyou
S'PRP'
tp3339
a(V,
S','
tp3340
aa(lp3341
(Vthat
S'IN'
tp3342
a(Vanything
S'NN'
tp3343
a(VI
S'PRP'
tp3344
a(Vcould
S'MD'
tp3345
a(Vn't
S'RB'
tp3346
a(Vdo
S'VB'
tp3347
aa(lp3348
(VWe
S'PRP'
tp3349
a(V'd
S'MD'
tp3350
a(Vtry
S'VB'
p3351
tp3352
a(Vto
S'TO'
tp3353
a(Vbury
g3351
tp3354
a(Vit
S'PRP'
tp3355
a(Vand
S'CC'
tp3356
a(Vrise
g3351
tp3357
a(Vabove
S'IN'
tp3358
aa(lp3359
(VBury
S'NN'
tp3360
a(Vit
S'PRP'
tp3361
a(Vand
S'CC'
tp3362
a(Vrise
S'VB'
tp3363
a(Vabove
S'IN'
tp3364
aa(lp3365
(VYou
S'PRP'
tp3366
a(V,
S','
tp3367
a(Vyou
S'PRP'
p3368
tp3369
a(V,
S','
tp3370
a(Vyou
g3368
tp3371
a(Vnever
S'RB'
tp3372
a(Vpromised
S'VBD'
tp3373
a(Vme
S'PRP'
tp3374
aa(lp3375
(VYou
S'PRP'
tp3376
a(Vwould
S'MD'
tp3377
a(Vsee
S'VB'
tp3378
a(Vit
S'PRP'
tp3379
a(Vdifferently
S'RB'
tp3380
aa(lp3381
(VBury
S'NN'
tp3382
a(Vit
S'PRP'
tp3383
a(Vand
S'CC'
tp3384
a(Vrise
S'VB'
tp3385
a(Vabove
S'IN'
tp3386
aa(lp3387
(VBury
S'NN'
tp3388
a(Vit
S'PRP'
tp3389
a(Vand
S'CC'
tp3390
a(Vrise
S'VB'
tp3391
a(Vabove
S'IN'
tp3392
aa(lp3393
(VYou
S'PRP'
tp3394
a(V,
S','
tp3395
a(Vyou
S'PRP'
tp3396
a(VBury
S'VBP'
tp3397
a(Vit
S'PRP'
p3398
tp3399
a(V,
S','
tp3400
a(Vbury
S'VBZ'
p3401
tp3402
a(Vit
g3398
tp3403
a(V,
S','
tp3404
a(Vbury
g3401
tp3405
a(Vit
g3398
tp3406
aa(lp3407
(VAnd
S'CC'
tp3408
a(Vrise
S'NN'
tp3409
a(Vabove
S'IN'
tp3410
aa(lp3411
(VYou
S'PRP'
tp3412
a(Vbury
S'VBP'
tp3413
a(Vit
S'PRP'
p3414
tp3415
a(V,
S','
tp3416
a(Vbury
S'VBZ'
p3417
tp3418
a(Vit
g3414
tp3419
a(V,
S','
tp3420
a(Vbury
g3417
tp3421
a(Vit
g3414
tp3422
aa(lp3423
(VAnd
S'CC'
tp3424
a(Vrise
S'NN'
tp3425
a(Vabove
S'IN'
tp3426
aa(lp3427
(VYou
S'PRP'
tp3428
a(Vbury
S'VBP'
tp3429
a(Vit
S'PRP'
p3430
tp3431
a(V,
S','
tp3432
a(Vbury
S'VBZ'
p3433
tp3434
a(Vit
g3430
tp3435
a(V,
S','
tp3436
a(Vbury
g3433
tp3437
a(Vit
g3430
tp3438
aa(lp3439
(VAnd
S'CC'
tp3440
a(Vrise
S'NN'
tp3441
a(Vabove
S'IN'
tp3442
aa(lp3443
(VYou
S'PRP'
tp3444
a(Vbury
S'VBP'
tp3445
a(Vit
S'PRP'
p3446
tp3447
a(V,
S','
tp3448
a(Vbury
S'VBZ'
p3449
tp3450
a(Vit
g3446
tp3451
a(V,
S','
tp3452
a(Vbury
g3449
tp3453
a(Vit
g3446
tp3454
aa(lp3455
(VAnd
S'CC'
tp3456
a(Vrise
S'NN'
tp3457
a(Vabove
S'IN'
tp3458
aa(lp3459
(VAnd
S'CC'
tp3460
a(Vif
S'IN'
tp3461
a(VI
S'PRP'
tp3462
a(Vpromised
S'VBD'
tp3463
a(Vyou
S'PRP'
tp3464
a(V,
S','
tp3465
aa(lp3466
(Vthat
S'IN'
tp3467
a(Vanything
S'NN'
tp3468
a(VI
S'PRP'
tp3469
a(Vcould
S'MD'
tp3470
a(Vn't
S'RB'
tp3471
a(Vdo
S'VB'
tp3472
aa(lp3473
(VWe
S'PRP'
tp3474
a(V'd
S'MD'
tp3475
a(Vtry
S'VB'
p3476
tp3477
a(Vto
S'TO'
tp3478
a(Vbury
g3476
tp3479
a(Vit
S'PRP'
tp3480
a(Vand
S'CC'
tp3481
a(Vrise
g3476
tp3482
a(Vabove
S'IN'
tp3483
aa(lp3484
(VBury
S'NN'
tp3485
a(Vit
S'PRP'
tp3486
a(Vand
S'CC'
tp3487
a(Vrise
S'VB'
tp3488
a(Vabove
S'IN'
tp3489
aa(lp3490
(VYou
S'PRP'
tp3491
a(V,
S','
tp3492
a(Vyou
S'PRP'
p3493
tp3494
a(V,
S','
tp3495
a(Vyou
g3493
tp3496
a(Vnever
S'RB'
tp3497
a(Vpromised
S'VBD'
tp3498
a(Vme
S'PRP'
tp3499
aa(lp3500
(VYou
S'PRP'
tp3501
a(Vwould
S'MD'
tp3502
a(Vsee
S'VB'
tp3503
a(Vit
S'PRP'
tp3504
a(Vdifferently
S'RB'
tp3505
aa(lp3506
(VBury
S'NN'
tp3507
a(Vit
S'PRP'
tp3508
a(Vand
S'CC'
tp3509
a(Vrise
S'VB'
tp3510
a(Vabove
S'IN'
tp3511
aa(lp3512
(VBury
S'NN'
tp3513
a(Vit
S'PRP'
tp3514
a(Vand
S'CC'
tp3515
a(Vrise
S'VB'
tp3516
a(Vabove
S'IN'
tp3517
aa(lp3518
(VYou
S'PRP'
tp3519
a(V,
S','
tp3520
a(Vyou
S'PRP'
tp3521
a(VBury
S'VBP'
tp3522
a(Vit
S'PRP'
p3523
tp3524
a(V,
S','
tp3525
a(Vbury
S'VBZ'
p3526
tp3527
a(Vit
g3523
tp3528
a(V,
S','
tp3529
a(Vbury
g3526
tp3530
a(Vit
g3523
tp3531
aa(lp3532
(VAnd
S'CC'
tp3533
a(Vrise
S'NN'
tp3534
a(Vabove
S'IN'
tp3535
aa(lp3536
(VYou
S'PRP'
tp3537
a(Vbury
S'VBP'
tp3538
a(Vit
S'PRP'
p3539
tp3540
a(V,
S','
tp3541
a(Vbury
S'VBZ'
p3542
tp3543
a(Vit
g3539
tp3544
a(V,
S','
tp3545
a(Vbury
g3542
tp3546
a(Vit
g3539
tp3547
aa(lp3548
(VAnd
S'CC'
tp3549
a(Vrise
S'NN'
tp3550
a(Vabove
S'IN'
tp3551
aa(lp3552
(VYou
S'PRP'
tp3553
a(Vbury
S'VBP'
tp3554
a(Vit
S'PRP'
p3555
tp3556
a(V,
S','
tp3557
a(Vbury
S'VBZ'
p3558
tp3559
a(Vit
g3555
tp3560
a(V,
S','
tp3561
a(Vbury
g3558
tp3562
a(Vit
g3555
tp3563
aa(lp3564
(VAnd
S'CC'
tp3565
a(Vrise
S'NN'
tp3566
a(Vabove
S'IN'
tp3567
aa(lp3568
(VYou
S'PRP'
tp3569
a(Vbury
S'VBP'
tp3570
a(Vit
S'PRP'
p3571
tp3572
a(V,
S','
tp3573
a(Vbury
S'VBZ'
p3574
tp3575
a(Vit
g3571
tp3576
a(V,
S','
tp3577
a(Vbury
g3574
tp3578
a(Vit
g3571
tp3579
aa(lp3580
(VAnd
S'CC'
tp3581
a(Vrise
S'NN'
tp3582
a(Vabove
S'IN'
tp3583
aasVMake Them Gold
p3584
(lp3585
(lp3586
(VCan
S'MD'
tp3587
a(Vyou
S'PRP'
tp3588
a(Vshow
S'VB'
p3589
tp3590
a(Vme
S'PRP'
tp3591
a(Vwhat
S'WP'
tp3592
a(Vto
S'TO'
tp3593
a(Vhave
g3589
tp3594
aa(lp3595
(VAnd
S'CC'
tp3596
a(Vwhat
S'WP'
tp3597
a(Vto
S'TO'
tp3598
a(Vhold
S'VB'
tp3599
aa(lp3600
(VIf
S'IN'
tp3601
a(Vyou
S'PRP'
tp3602
a(Vnever
S'RB'
tp3603
a(Vtake
S'VBP'
tp3604
a(Vthe
S'DT'
tp3605
a(Vway
S'NN'
tp3606
aa(lp3607
(VOn
S'IN'
tp3608
a(Vyour
S'PRP$'
tp3609
a(Vown
S'JJ'
tp3610
aa(lp3611
(VNo
S'DT'
tp3612
a(Vone
S'NN'
tp3613
a(Vtells
S'VBZ'
tp3614
a(Vus
S'PRP'
tp3615
a(Vwhat
S'WP'
tp3616
a(Vis
S'VBZ'
tp3617
a(V(
S'('
tp3618
a(Vhard
S'JJ'
tp3619
a(V?
S'.'
tp3620
a(V)
S')'
tp3621
aa(lp3622
(VAnd
S'CC'
tp3623
a(Vwhat
S'WP'
tp3624
a(Vis
S'VBZ'
tp3625
a(Vfair
S'JJ'
tp3626
aa(lp3627
(VWe
S'PRP'
tp3628
a(Vwill
S'MD'
tp3629
a(Vdeliver
S'VB'
tp3630
a(Vonce
S'RB'
tp3631
a(Vwe
S'PRP'
tp3632
a(Vknow
S'VBP'
tp3633
aa(lp3634
(VWhere
S'WRB'
tp3635
a(Vto
S'TO'
tp3636
a(Vfall
S'VB'
tp3637
aa(lp3638
(VWe
S'PRP'
tp3639
a(Vare
S'VBP'
tp3640
a(Vmade
S'VBN'
tp3641
a(Vof
S'IN'
tp3642
a(Vour
S'PRP$'
tp3643
a(Vlongest
S'JJS'
tp3644
a(Vdays
S'NNS'
tp3645
aa(lp3646
(VWe
S'PRP'
tp3647
a(Vare
S'VBP'
tp3648
a(Vfalling
S'VBG'
tp3649
a(Vbut
S'CC'
tp3650
a(Vnot
S'RB'
tp3651
a(Valone
S'RB'
tp3652
aa(lp3653
(VWe
S'PRP'
tp3654
a(Vwill
S'MD'
tp3655
a(Vtake
S'VB'
tp3656
a(Vthe
S'DT'
tp3657
a(Vbest
S'JJS'
tp3658
a(Vparts
S'NNS'
tp3659
a(Vof
S'IN'
tp3660
a(Vourselves
S'NNS'
tp3661
aa(lp3662
(VAnd
S'CC'
tp3663
a(Vmake
S'VB'
p3664
tp3665
a(Vthem
S'PRP'
tp3666
a(Vgold
g3664
tp3667
aa(lp3668
(VWe
S'PRP'
tp3669
a(Vare
S'VBP'
tp3670
a(Vmade
S'VBN'
tp3671
a(Vof
S'IN'
tp3672
a(Vthe
S'DT'
tp3673
a(V(
S'('
tp3674
a(Vsmallest
S'JJS'
tp3675
a(Vstars
S'NNS'
tp3676
a(V?
S'.'
tp3677
a(V)
S')'
tp3678
aa(lp3679
(VWe
S'PRP'
tp3680
a(Vare
S'VBP'
tp3681
a(Vbreathing
S'VBG'
p3682
tp3683
a(Vand
S'CC'
tp3684
a(Vletting
g3682
tp3685
a(Vgo
S'VB'
tp3686
aa(lp3687
(VWe
S'PRP'
tp3688
a(Vwill
S'MD'
tp3689
a(Vtake
S'VB'
tp3690
a(Vthe
S'DT'
tp3691
a(Vbest
S'JJS'
tp3692
a(Vparts
S'NNS'
tp3693
a(Vof
S'IN'
tp3694
a(Vourselves
S'NNS'
tp3695
aa(lp3696
(VAnd
S'CC'
tp3697
a(Vmake
S'VB'
p3698
tp3699
a(Vthem
S'PRP'
tp3700
a(Vgold
g3698
tp3701
aa(lp3702
(VCan
S'MD'
tp3703
a(Vyou
S'PRP'
tp3704
a(Vsteady
S'VB'
tp3705
a(Vall
S'PDT'
tp3706
a(Vthe
S'DT'
tp3707
a(Vhands
S'NNS'
tp3708
aa(lp3709
(VThat
S'IN'
tp3710
a(Vyou
S'PRP'
tp3711
a(Vhold
S'VBP'
tp3712
aa(lp3713
(VIf
S'IN'
tp3714
a(Vyou
S'PRP'
tp3715
a(Vnever
S'RB'
tp3716
a(Vlook
S'VBP'
tp3717
a(Vaway
S'RB'
tp3718
aa(lp3719
(VFrom
S'IN'
tp3720
a(Vthe
S'DT'
tp3721
a(V(
S'('
tp3722
a(V?
S'.'
tp3723
a(V?
S'.'
tp3724
a(V)
S')'
tp3725
aa(lp3726
(VIf
S'IN'
tp3727
a(Vyou
S'PRP'
tp3728
a(Vpush
S'VBP'
tp3729
a(Vyourself
S'PRP'
tp3730
a(Vthen
S'RB'
tp3731
a(VI
S'PRP'
tp3732
aa(lp3733
(VCan
S'MD'
tp3734
a(Vpull
S'VB'
tp3735
a(Vyou
S'PRP'
tp3736
a(Vup
S'RP'
tp3737
aa(lp3738
(VAnd
S'CC'
tp3739
a(Vwe
S'PRP'
p3740
tp3741
a(Vwill
S'MD'
tp3742
a(Vdeliver
S'VB'
tp3743
a(Vonce
S'RB'
tp3744
a(Vwe
g3740
tp3745
a(Vknow
S'VBP'
tp3746
aa(lp3747
(VWhere
S'WRB'
tp3748
a(Vto
S'TO'
tp3749
a(Vfall
S'VB'
tp3750
aa(lp3751
(VWe
S'PRP'
tp3752
a(Vare
S'VBP'
tp3753
a(Vmade
S'VBN'
tp3754
a(Vof
S'IN'
tp3755
a(Vall
S'DT'
tp3756
a(Vour
S'PRP$'
tp3757
a(Vlongest
S'JJS'
tp3758
a(Vdays
S'NNS'
tp3759
aa(lp3760
(VWe
S'PRP'
tp3761
a(Vare
S'VBP'
tp3762
a(Vfalling
S'VBG'
tp3763
a(Vbut
S'CC'
tp3764
a(Vnot
S'RB'
tp3765
a(Valone
S'RB'
tp3766
aa(lp3767
(VWe
S'PRP'
tp3768
a(Vwill
S'MD'
tp3769
a(Vtake
S'VB'
tp3770
a(Vthe
S'DT'
tp3771
a(Vbest
S'JJS'
tp3772
a(Vparts
S'NNS'
tp3773
a(Vof
S'IN'
tp3774
a(Vourselves
S'NNS'
tp3775
aa(lp3776
(VAnd
S'CC'
tp3777
a(Vmake
S'VB'
p3778
tp3779
a(Vthem
S'PRP'
tp3780
a(Vgold
g3778
tp3781
aa(lp3782
(VWe
S'PRP'
tp3783
a(Vare
S'VBP'
tp3784
a(Vmade
S'VBN'
tp3785
a(Vof
S'IN'
tp3786
a(Vthe
S'DT'
tp3787
a(V(
S'('
tp3788
a(Vsmallest
S'JJS'
tp3789
a(Vstars
S'NNS'
tp3790
a(V?
S'.'
tp3791
a(V)
S')'
tp3792
aa(lp3793
(VWe
S'PRP'
tp3794
a(Vare
S'VBP'
tp3795
a(Vbreathing
S'VBG'
p3796
tp3797
a(Vand
S'CC'
tp3798
a(Vletting
g3796
tp3799
a(Vgo
S'VB'
tp3800
aa(lp3801
(VWe
S'PRP'
tp3802
a(Vwill
S'MD'
tp3803
a(Vtake
S'VB'
tp3804
a(Vthe
S'DT'
tp3805
a(Vbest
S'JJS'
tp3806
a(Vparts
S'NNS'
tp3807
a(Vof
S'IN'
tp3808
a(Vourselves
S'NNS'
tp3809
aa(lp3810
(VAnd
S'CC'
tp3811
a(Vmake
S'VB'
p3812
tp3813
a(Vthem
S'PRP'
tp3814
a(Vgold
g3812
tp3815
aa(lp3816
(VI
S'PRP'
tp3817
a(Vwill
S'MD'
tp3818
a(Vwait
S'VB'
p3819
tp3820
a(Vto
S'TO'
tp3821
a(Vsee
g3819
tp3822
a(Vif
S'IN'
tp3823
a(Vyou
S'PRP'
tp3824
a(Vcome
S'VBP'
tp3825
a(Vat
S'IN'
tp3826
a(Vall
S'DT'
tp3827
aa(lp3828
(VTo
S'TO'
tp3829
a(Vstop
S'VB'
tp3830
a(Vus
S'PRP'
tp3831
a(Vfalling
S'VBG'
tp3832
a(Vout
S'IN'
tp3833
a(Vof
S'IN'
tp3834
a(Vphase
S'NN'
tp3835
aa(lp3836
(VLet
S'VB'
p3837
tp3838
a(V's
S'POS'
tp3839
a(Vsee
g3837
tp3840
a(Vif
S'IN'
tp3841
a(Vwe
S'PRP'
tp3842
a(Vcan
S'MD'
tp3843
a(Vkeep
g3837
tp3844
aa(lp3845
(VTrack
S'NN'
tp3846
a(Vof
S'IN'
tp3847
a(Vlosing
S'VBG'
tp3848
a(Vdays
S'NNS'
tp3849
aa(lp3850
(VYou
S'PRP'
tp3851
a(V'd
S'MD'
tp3852
a(Vsmile
S'VB'
p3853
tp3854
a(Vso
S'RB'
tp3855
a(Vwide
S'JJ'
tp3856
a(VI
S'PRP'
tp3857
a(Vcan
S'MD'
tp3858
a(Vsee
g3853
tp3859
a(Vthe
S'DT'
tp3860
a(Vstars
S'NNS'
tp3861
aa(lp3862
(VJust
S'RB'
tp3863
a(Vstop
S'VB'
tp3864
a(Vus
S'PRP'
tp3865
a(Vfalling
S'VBG'
tp3866
a(Vout
S'IN'
tp3867
a(Vof
S'IN'
tp3868
a(Vphase
S'NN'
tp3869
aa(lp3870
(VI
S'PRP'
tp3871
a(Vwill
S'MD'
tp3872
a(Vbe
S'VB'
tp3873
a(Vwith
S'IN'
tp3874
a(Vyou
S'PRP'
tp3875
a(Vin
S'IN'
tp3876
a(Vthe
S'DT'
tp3877
a(Vfray
S'NN'
tp3878
aa(lp3879
(VWith
S'IN'
tp3880
a(Vthose
S'DT'
tp3881
a(Vsecond
S'JJ'
tp3882
a(V(
S'('
tp3883
a(V?
S'.'
tp3884
a(V?
S'.'
tp3885
a(V)
S')'
tp3886
aa(lp3887
(VYou
S'PRP'
tp3888
a(Vasked
S'VBD'
tp3889
a(Vfor
S'IN'
tp3890
a(Vall
S'DT'
tp3891
a(Vyou
S'PRP'
tp3892
a(V(
S'('
tp3893
a(V?
S'.'
tp3894
a(V?
S'.'
tp3895
a(V)
S')'
tp3896
aa(lp3897
(VWe
S'PRP'
tp3898
a(Vare
S'VBP'
tp3899
a(Vmade
S'VBN'
tp3900
a(Vof
S'IN'
tp3901
a(Vall
S'DT'
tp3902
a(Vour
S'PRP$'
tp3903
a(Vlongest
S'JJS'
tp3904
a(Vdays
S'NNS'
tp3905
aa(lp3906
(VWe
S'PRP'
tp3907
a(Vare
S'VBP'
tp3908
a(Vfalling
S'VBG'
tp3909
a(Vbut
S'CC'
tp3910
a(Vnot
S'RB'
tp3911
a(Valone
S'RB'
tp3912
aa(lp3913
(VWe
S'PRP'
tp3914
a(Vwill
S'MD'
tp3915
a(Vtake
S'VB'
tp3916
a(Vthe
S'DT'
tp3917
a(Vbest
S'JJS'
tp3918
a(Vparts
S'NNS'
tp3919
a(Vof
S'IN'
tp3920
a(Vourselves
S'NNS'
tp3921
aa(lp3922
(VAnd
S'CC'
tp3923
a(Vmake
S'VB'
p3924
tp3925
a(Vthem
S'PRP'
tp3926
a(Vgold
g3924
tp3927
aa(lp3928
(VWe
S'PRP'
tp3929
a(Vare
S'VBP'
tp3930
a(Vmade
S'VBN'
tp3931
a(Vof
S'IN'
tp3932
a(Vthe
S'DT'
tp3933
a(V(
S'('
tp3934
a(Vsmallest
S'JJS'
tp3935
a(Vstars
S'NNS'
tp3936
a(V?
S'.'
tp3937
a(V)
S')'
tp3938
aa(lp3939
(VWe
S'PRP'
tp3940
a(Vare
S'VBP'
tp3941
a(Vbreathing
S'VBG'
p3942
tp3943
a(Vand
S'CC'
tp3944
a(Vletting
g3942
tp3945
a(Vgo
S'VB'
tp3946
aa(lp3947
(VWe
S'PRP'
tp3948
a(Vwill
S'MD'
tp3949
a(Vtake
S'VB'
tp3950
a(Vthe
S'DT'
tp3951
a(Vbest
S'JJS'
tp3952
a(Vparts
S'NNS'
tp3953
a(Vof
S'IN'
tp3954
a(Vourselves
S'NNS'
tp3955
aa(lp3956
(VAnd
S'CC'
tp3957
a(Vmake
S'VB'
p3958
tp3959
a(Vthem
S'PRP'
tp3960
a(Vgold
g3958
tp3961
aa(lp3962
(VAnd
S'CC'
tp3963
a(Vmake
S'VB'
p3964
tp3965
a(Vthem
S'PRP'
tp3966
a(Vgold
g3964
tp3967
aasVNever Ending Circles
p3968
(lp3969
(lp3970
(VThrow
S'VB'
tp3971
a(Vme
S'PRP'
tp3972
aa(lp3973
(VNo
S'DT'
p3974
tp3975
a(Vmore
S'JJR'
tp3976
a(Vbones
S'NNS'
p3977
tp3978
a(Vand
S'CC'
tp3979
a(VI
S'PRP'
tp3980
a(Vwill
S'MD'
tp3981
a(Vtell
S'VB'
tp3982
a(Vyou
S'PRP'
tp3983
a(Vno
g3974
tp3984
a(Vlies
g3977
tp3985
aa(lp3986
(VThis
S'DT'
tp3987
a(Vtime
S'NN'
tp3988
aa(lp3989
(VAt
S'IN'
tp3990
a(Vleast
S'JJS'
tp3991
a(VI
S'PRP'
tp3992
a(Vam
S'VBP'
tp3993
a(Vnot
S'RB'
tp3994
a(Vso
S'RB'
tp3995
a(Vcold
S'JJ'
tp3996
aa(lp3997
(VYou
S'PRP'
tp3998
a(Vgive
S'VBP'
tp3999
a(Vme
S'PRP'
tp4000
a(Veverything
S'NN'
tp4001
a(VI
S'PRP'
tp4002
a(Vnever
S'RB'
tp4003
a(Vdeserved
S'VBD'
tp4004
aa(lp4005
(VThis
S'DT'
tp4006
a(Vtime
S'NN'
tp4007
aa(lp4008
(VYou
S'PRP'
tp4009
a(Vknow
S'VBP'
tp4010
a(VI
S'PRP'
tp4011
a(V'll
S'MD'
tp4012
a(Vleave
S'VB'
tp4013
aa(lp4014
(VHere
S'RB'
tp4015
a(V's
S'VBZ'
tp4016
a(Vto
S'TO'
tp4017
a(Vtaking
S'VB'
tp4018
a(Vwhat
S'WP'
tp4019
a(Vyou
S'PRP'
tp4020
a(Vcame
S'VBD'
tp4021
a(Vfor
S'IN'
tp4022
aa(lp4023
(VAnd
S'CC'
tp4024
a(Vhere
S'RB'
tp4025
a(V's
S'VBZ'
tp4026
a(Vto
S'TO'
tp4027
a(Vrunning
S'VB'
tp4028
a(Voff
S'RP'
tp4029
a(Vthe
S'DT'
tp4030
a(Vpain
S'NN'
tp4031
aa(lp4032
(VAnd
S'CC'
tp4033
a(Vhere
S'RB'
tp4034
a(V's
S'VBZ'
tp4035
a(Vto
S'TO'
tp4036
a(Vjust
S'RB'
tp4037
a(Vanother
S'DT'
tp4038
a(Vno
S'DT'
tp4039
a(Vman
S'NN'
tp4040
aa(lp4041
(VIf
S'IN'
tp4042
a(Vyou
S'PRP'
tp4043
a(Vwant
S'VBP'
tp4044
a(Vanother
S'DT'
tp4045
aa(lp4046
(VSay
S'NNP'
tp4047
a(Vyou
S'PRP'
tp4048
a(Vneed
S'VBP'
tp4049
a(Vanother
S'DT'
tp4050
aa(lp4051
(VHere
S'RB'
tp4052
a(V's
S'VBZ'
tp4053
a(Vto
S'TO'
tp4054
a(Vnever
S'RB'
tp4055
a(Vending
S'VBG'
tp4056
a(Vcircles
S'NNS'
tp4057
aa(lp4058
(VAnd
S'CC'
tp4059
a(Vbuilding
S'VBG'
tp4060
a(Vthem
S'PRP'
tp4061
a(Von
S'IN'
tp4062
a(Vtop
S'NN'
tp4063
a(Vof
S'IN'
tp4064
a(Vme
S'PRP'
tp4065
aa(lp4066
(VAnd
S'CC'
tp4067
a(Vhere
S'RB'
tp4068
a(V's
S'VBZ'
tp4069
a(Vto
S'TO'
tp4070
a(Vanother
S'DT'
tp4071
a(Vno
S'DT'
tp4072
a(Vman
S'NN'
tp4073
aa(lp4074
(VIf
S'IN'
tp4075
a(Vyou
S'PRP'
tp4076
a(Vwant
S'VBP'
tp4077
a(Vanother
S'DT'
tp4078
aa(lp4079
(VSay
S'NNP'
tp4080
a(Vyou
S'PRP'
tp4081
a(Vneed
S'VBP'
tp4082
a(Vanother
S'DT'
tp4083
aa(lp4084
(VCut
S'NNP'
tp4085
a(Voff
S'RP'
tp4086
aa(lp4087
(VI
S'PRP'
p4088
tp4089
a(V'll
S'MD'
tp4090
a(Vgo
S'VB'
tp4091
a(Vmy
S'PRP$'
tp4092
a(Vway
S'NN'
tp4093
a(Vif
S'IN'
tp4094
a(VI
g4088
tp4095
a(V'm
S'VBP'
tp4096
a(Vgoing
S'VBG'
tp4097
a(Vat
S'IN'
tp4098
a(Vall
S'DT'
tp4099
aa(lp4100
(VThis
S'DT'
tp4101
a(Vtime
S'NN'
tp4102
aa(lp4103
(VBelieve
S'NNP'
tp4104
a(Vthat
S'IN'
tp4105
a(Vthe
S'DT'
tp4106
a(Vstrong
S'JJ'
tp4107
a(Vred
S'JJ'
tp4108
a(Vlines
S'NNS'
tp4109
aa(lp4110
(VThat
S'DT'
tp4111
a(VI
S'PRP'
tp4112
a(Vwill
S'MD'
p4113
tp4114
a(Vdraw
S'VB'
p4115
tp4116
a(Vwill
g4113
tp4117
a(Vcome
g4115
tp4118
a(Vand
S'CC'
tp4119
a(Vcover
g4115
tp4120
a(Vyou
S'PRP'
tp4121
a(Vup
S'RP'
tp4122
aa(lp4123
(VThis
S'DT'
tp4124
a(Vtime
S'NN'
tp4125
aa(lp4126
(VYou
S'PRP'
tp4127
a(Vknow
S'VBP'
tp4128
a(VI
S'PRP'
tp4129
a(V'll
S'MD'
tp4130
a(Vleave
S'VB'
tp4131
aa(lp4132
(VHere
S'RB'
tp4133
a(V's
S'VBZ'
tp4134
a(Vto
S'TO'
tp4135
a(Vtaking
S'VB'
tp4136
a(Vwhat
S'WP'
tp4137
a(Vyou
S'PRP'
tp4138
a(Vcame
S'VBD'
tp4139
a(Vfor
S'IN'
tp4140
aa(lp4141
(VAnd
S'CC'
tp4142
a(Vhere
S'RB'
tp4143
a(V's
S'VBZ'
tp4144
a(Vto
S'TO'
tp4145
a(Vrunning
S'VB'
tp4146
a(Voff
S'RP'
tp4147
a(Vthe
S'DT'
tp4148
a(Vpain
S'NN'
tp4149
aa(lp4150
(VAnd
S'CC'
tp4151
a(Vhere
S'RB'
tp4152
a(V's
S'VBZ'
tp4153
a(Vto
S'TO'
tp4154
a(Vjust
S'RB'
tp4155
a(Vanother
S'DT'
tp4156
a(Vno
S'DT'
tp4157
a(Vman
S'NN'
tp4158
aa(lp4159
(VIf
S'IN'
tp4160
a(Vyou
S'PRP'
tp4161
a(Vwant
S'VBP'
tp4162
a(Vanother
S'DT'
tp4163
aa(lp4164
(VSay
S'NNP'
tp4165
a(Vyou
S'PRP'
tp4166
a(Vneed
S'VBP'
tp4167
a(Vanother
S'DT'
tp4168
aa(lp4169
(VHere
S'RB'
tp4170
a(V's
S'VBZ'
tp4171
a(Vto
S'TO'
tp4172
a(Vnever
S'RB'
tp4173
a(Vending
S'VBG'
tp4174
a(Vcircles
S'NNS'
tp4175
aa(lp4176
(VAnd
S'CC'
tp4177
a(Vbuilding
S'VBG'
tp4178
a(Vthem
S'PRP'
tp4179
a(Von
S'IN'
tp4180
a(Vtop
S'NN'
tp4181
a(Vof
S'IN'
tp4182
a(Vme
S'PRP'
tp4183
aa(lp4184
(VAnd
S'CC'
tp4185
a(Vhere
S'RB'
tp4186
a(V's
S'VBZ'
tp4187
a(Vto
S'TO'
tp4188
a(Vanother
S'DT'
tp4189
a(Vno
S'DT'
tp4190
a(Vman
S'NN'
tp4191
aa(lp4192
(VIf
S'IN'
tp4193
a(Vyou
S'PRP'
tp4194
a(Vwant
S'VBP'
tp4195
a(Vanother
S'DT'
tp4196
aa(lp4197
(VSay
S'NNP'
tp4198
a(Vyou
S'PRP'
tp4199
a(Vneed
S'VBP'
tp4200
a(Vanother
S'DT'
tp4201
aa(lp4202
(VWe
S'PRP'
tp4203
a(Vare
S'VBP'
tp4204
a(Vlosing
S'VBG'
tp4205
a(Vground
S'NN'
tp4206
aa(lp4207
(VIt
S'PRP'
tp4208
a(V's
S'VBZ'
tp4209
a(Vtime
S'NN'
tp4210
a(Vto
S'TO'
tp4211
a(Vsave
S'VB'
tp4212
a(Vyour
S'PRP$'
tp4213
a(Vneck
S'NN'
tp4214
aa(lp4215
(VAnd
S'CC'
tp4216
a(VI
S'PRP'
tp4217
a(Vwill
S'MD'
tp4218
a(Vtry
S'VB'
p4219
tp4220
a(Vto
S'TO'
tp4221
a(Vfind
g4219
tp4222
a(Vmy
S'PRP$'
tp4223
a(Vfeet
S'NNS'
tp4224
a(Vand
S'CC'
tp4225
a(Vgo
g4219
tp4226
aa(lp4227
(VI
S'PRP'
tp4228
a(Vam
S'VBP'
tp4229
a(Vbraced
S'VBN'
tp4230
a(Vfor
S'IN'
tp4231
a(Vwords
S'NNS'
tp4232
a(Vthat
S'WDT'
tp4233
a(Vnever
S'RB'
tp4234
a(Vcome
S'VBP'
tp4235
aa(lp4236
(VBut
S'CC'
tp4237
a(VI
S'PRP'
tp4238
a(Vchoose
S'VBP'
tp4239
a(Vto
S'TO'
tp4240
a(Vdecide
S'VB'
tp4241
a(Vthat
S'IN'
tp4242
aa(lp4243
(VI
S'PRP'
tp4244
a(Vdo
S'VBP'
tp4245
a(Vn't
S'RB'
tp4246
a(Vregret
S'VB'
tp4247
a(Vit
S'PRP'
tp4248
aa(lp4249
(VI
S'PRP'
tp4250
a(Vdo
S'VBP'
tp4251
a(Vn't
S'RB'
tp4252
a(Vregret
S'VB'
tp4253
a(Vit
S'PRP'
tp4254
aa(lp4255
(VHere
S'RB'
tp4256
a(V's
S'VBZ'
tp4257
a(Vto
S'TO'
tp4258
a(Vtaking
S'VB'
tp4259
a(Vwhat
S'WP'
tp4260
a(Vyou
S'PRP'
tp4261
a(Vcame
S'VBD'
tp4262
a(Vfor
S'IN'
tp4263
aa(lp4264
(VAnd
S'CC'
tp4265
a(Vhere
S'RB'
tp4266
a(V's
S'VBZ'
tp4267
a(Vto
S'TO'
tp4268
a(Vrunning
S'VB'
tp4269
a(Voff
S'RP'
tp4270
a(Vthe
S'DT'
tp4271
a(Vpain
S'NN'
tp4272
aa(lp4273
(VAnd
S'CC'
tp4274
a(Vhere
S'RB'
tp4275
a(V's
S'VBZ'
tp4276
a(Vto
S'TO'
tp4277
a(Vjust
S'RB'
tp4278
a(Vanother
S'DT'
tp4279
a(Vno
S'DT'
tp4280
a(Vman
S'NN'
tp4281
aa(lp4282
(VIf
S'IN'
tp4283
a(Vyou
S'PRP'
tp4284
a(Vwant
S'VBP'
tp4285
a(Vanother
S'DT'
tp4286
aa(lp4287
(VSay
S'NNP'
tp4288
a(Vyou
S'PRP'
tp4289
a(Vneed
S'VBP'
tp4290
a(Vanother
S'DT'
tp4291
aa(lp4292
(VHere
S'RB'
tp4293
a(V's
S'VBZ'
tp4294
a(Vto
S'TO'
tp4295
a(Vnever
S'RB'
tp4296
a(Vending
S'VBG'
tp4297
a(Vcircles
S'NNS'
tp4298
aa(lp4299
(VAnd
S'CC'
tp4300
a(Vbuilding
S'VBG'
tp4301
a(Vthem
S'PRP'
tp4302
a(Von
S'IN'
tp4303
a(Vtop
S'NN'
tp4304
a(Vof
S'IN'
tp4305
a(Vme
S'PRP'
tp4306
aa(lp4307
(VAnd
S'CC'
tp4308
a(Vhere
S'RB'
tp4309
a(V's
S'VBZ'
tp4310
a(Vto
S'TO'
tp4311
a(Vanother
S'DT'
tp4312
a(Vno
S'DT'
tp4313
a(Vman
S'NN'
tp4314
aa(lp4315
(VIf
S'IN'
tp4316
a(Vyou
S'PRP'
tp4317
a(Vwant
S'VBP'
tp4318
a(Vanother
S'DT'
tp4319
aa(lp4320
(VSay
S'NNP'
tp4321
a(Vyou
S'PRP'
tp4322
a(Vneed
S'VBP'
tp4323
a(Vanother
S'DT'
tp4324
aasVPlaying Dead
p4325
(lp4326
(lp4327
(VNo
S'DT'
p4328
tp4329
a(Vmore
S'JJR'
tp4330
a(Vexcuses
S'NNS'
tp4331
a(Vand
S'CC'
tp4332
a(Vno
g4328
tp4333
a(Vmore
S'RBR'
tp4334
a(Vplaying
S'JJ'
p4335
tp4336
a(Vdead
g4335
tp4337
aa(lp4338
(VThere
S'EX'
tp4339
a(Vare
S'VBP'
tp4340
a(Vno
S'DT'
tp4341
a(Vsilver
S'JJ'
tp4342
a(Vlinings
S'NNS'
tp4343
a(Vin
S'IN'
tp4344
a(Vanything
S'NN'
tp4345
a(Vyou
S'PRP'
tp4346
a(Vsaid
S'VBD'
tp4347
aa(lp4348
(VIf
S'IN'
tp4349
a(Vyou
S'PRP'
tp4350
a(Vkeep
S'VBP'
tp4351
a(Von
S'IN'
tp4352
a(Vdenying
S'NN'
tp4353
a(Vand
S'CC'
tp4354
a(VI
S'PRP'
tp4355
a(Vcould
S'MD'
tp4356
a(Vstay
S'VB'
tp4357
a(Vaway
S'RB'
tp4358
aa(lp4359
(VWe
S'PRP'
tp4360
a(Vcould
S'MD'
tp4361
a(Vhold
S'VB'
p4362
tp4363
a(Vup
S'RP'
tp4364
a(Vour
S'PRP$'
tp4365
a(Vhands
S'NNS'
tp4366
a(V,
S','
tp4367
a(Vsay
S'VBP'
p4368
tp4369
a(Vwe
S'PRP'
p4370
tp4371
a(Vdo
g4368
tp4372
a(Vn't
S'RB'
p4373
tp4374
a(Vwant
g4362
tp4375
a(Vit
S'PRP'
p4376
tp4377
a(V,
S','
tp4378
a(Vwe
g4370
tp4379
a(Vdo
g4368
tp4380
a(Vn't
g4373
tp4381
a(Vneed
g4362
tp4382
a(Vit
g4376
tp4383
aa(lp4384
(VIf
S'IN'
tp4385
a(VI
S'PRP'
tp4386
a(Vgive
S'VBP'
tp4387
a(Vmore
S'JJR'
tp4388
a(Vthan
S'IN'
tp4389
a(Venough
S'RB'
tp4390
a(Vground
S'NN'
tp4391
a(V,
S','
tp4392
a(Vwill
S'MD'
tp4393
a(Vyou
S'PRP'
tp4394
a(Vclaim
S'VB'
tp4395
a(Vit
S'PRP'
tp4396
a(V?
S'.'
tp4397
aa(lp4398
(VI
S'PRP'
tp4399
a(Vwill
S'MD'
tp4400
a(Vtake
S'VB'
p4401
tp4402
a(Vit
S'PRP'
p4403
tp4404
a(Vall
S'DT'
tp4405
a(Vin
S'IN'
tp4406
a(Vone
S'CD'
tp4407
a(Vbreath
S'NN'
tp4408
a(Vand
S'CC'
tp4409
a(Vhold
g4401
tp4410
a(Vit
g4403
tp4411
a(Vdown
S'RP'
tp4412
aa(lp4413
(VAnd
S'CC'
tp4414
a(Vif
S'IN'
tp4415
a(VI
S'PRP'
p4416
tp4417
a(Vtry
S'VBP'
p4418
tp4419
a(Vto
S'TO'
tp4420
a(Vpretend
S'VB'
p4421
tp4422
a(Vthat
S'IN'
tp4423
a(VI
g4416
tp4424
a(Vdo
g4418
tp4425
a(Vn't
S'RB'
tp4426
a(Vhear
g4421
tp4427
a(Vit
S'PRP'
tp4428
aa(lp4429
(VYou
S'PRP'
tp4430
a(Vcan
S'MD'
tp4431
a(Vtell
S'VB'
p4432
tp4433
a(Vme
S'PRP'
tp4434
a(Vto
S'TO'
tp4435
a(Vmove
g4432
tp4436
a(Vand
S'CC'
tp4437
a(VI
S'PRP'
tp4438
a(Vwo
S'MD'
tp4439
a(Vn't
S'RB'
tp4440
a(Vgo
g4432
tp4441
aa(lp4442
(VYou
S'PRP'
tp4443
a(Vcan
S'MD'
tp4444
a(Vtell
S'VB'
p4445
tp4446
a(Vme
S'PRP'
tp4447
a(Vto
S'TO'
tp4448
a(Vtry
g4445
tp4449
a(Vand
S'CC'
tp4450
a(VI
S'PRP'
tp4451
a(Vwo
S'MD'
tp4452
a(Vn't
S'RB'
tp4453
a(Vgo
g4445
tp4454
aa(lp4455
(VIf
S'IN'
tp4456
a(VI
S'PRP'
tp4457
a(Vgive
S'VBP'
tp4458
a(Vmore
S'JJR'
tp4459
a(Vthan
S'IN'
tp4460
a(Venough
S'RB'
tp4461
a(Vground
S'NN'
tp4462
a(V,
S','
tp4463
a(Vwill
S'MD'
tp4464
a(Vyou
S'PRP'
tp4465
a(Vleave
S'VB'
tp4466
a(Vit
S'PRP'
tp4467
a(V?
S'.'
tp4468
aa(lp4469
(VI
S'PRP'
tp4470
a(Vwill
S'MD'
tp4471
a(Vtake
S'VB'
p4472
tp4473
a(Vit
S'PRP'
p4474
tp4475
a(Vall
S'DT'
tp4476
a(Vin
S'IN'
tp4477
a(Vone
S'CD'
tp4478
a(Vbreath
S'NN'
tp4479
a(Vand
S'CC'
tp4480
a(Vhold
g4472
tp4481
a(Vit
g4474
tp4482
a(Vdown
S'RP'
tp4483
aa(lp4484
(VAnd
S'CC'
tp4485
a(Vif
S'IN'
tp4486
a(VI
S'PRP'
p4487
tp4488
a(Vtry
S'VBP'
p4489
tp4490
a(Vto
S'TO'
tp4491
a(Vpretend
S'VB'
p4492
tp4493
a(Vthat
S'IN'
tp4494
a(VI
g4487
tp4495
a(Vdo
g4489
tp4496
a(Vn't
S'RB'
tp4497
a(Vsee
g4492
tp4498
a(Vit
S'PRP'
tp4499
aa(lp4500
(VYou
S'PRP'
tp4501
a(Vcan
S'MD'
tp4502
a(Vtell
S'VB'
p4503
tp4504
a(Vme
S'PRP'
tp4505
a(Vto
S'TO'
tp4506
a(Vmove
g4503
tp4507
a(Vand
S'CC'
tp4508
a(VI
S'PRP'
tp4509
a(Vwo
S'MD'
tp4510
a(Vn't
S'RB'
tp4511
a(Vgo
g4503
tp4512
aa(lp4513
(VYou
S'PRP'
tp4514
a(Vcan
S'MD'
tp4515
a(Vtell
S'VB'
p4516
tp4517
a(Vme
S'PRP'
tp4518
a(Vto
S'TO'
tp4519
a(Vtry
g4516
tp4520
a(Vand
S'CC'
tp4521
a(VI
S'PRP'
tp4522
a(Vwo
S'MD'
tp4523
a(Vn't
S'RB'
tp4524
a(Vgo
g4516
tp4525
aa(lp4526
(VNo
S'DT'
p4527
tp4528
a(Vmore
S'JJR'
tp4529
a(Vdistractions
S'NNS'
tp4530
a(Vand
S'CC'
tp4531
a(Vno
g4527
tp4532
a(Vmore
S'RBR'
tp4533
a(Vstaying
S'NN'
tp4534
a(Vstill
S'RB'
tp4535
aa(lp4536
(VI
S'PRP'
tp4537
a(Vam
S'VBP'
tp4538
a(Vchasing
S'VBG'
tp4539
a(Vthe
S'DT'
tp4540
a(Vskyline
S'NN'
tp4541
a(Vmuch
S'RB'
tp4542
a(Vmore
S'JJR'
tp4543
a(Vthan
S'IN'
tp4544
a(Vyou
S'PRP'
tp4545
a(Vever
S'RB'
tp4546
a(Vwill
S'MD'
tp4547
aa(lp4548
(VYou
S'PRP'
tp4549
a(Vcan
S'MD'
tp4550
a(Vkeep
S'VB'
p4551
tp4552
a(Vto
S'TO'
p4553
tp4554
a(Vyour
S'PRP$'
tp4555
a(Vstory
S'NN'
tp4556
a(Vand
S'CC'
tp4557
a(VI
S'PRP'
tp4558
a(Vcould
S'MD'
tp4559
a(Vstick
g4551
tp4560
a(Vto
g4553
tp4561
a(Vmine
g4551
tp4562
aa(lp4563
(VWe
S'PRP'
tp4564
a(Vcould
S'MD'
tp4565
a(Vhold
S'VB'
p4566
tp4567
a(Vup
S'RP'
tp4568
a(Vour
S'PRP$'
tp4569
a(Vhands
S'NNS'
tp4570
a(V,
S','
tp4571
a(Vsay
S'VBP'
p4572
tp4573
a(Vwe
S'PRP'
p4574
tp4575
a(Vdo
g4572
tp4576
a(Vn't
S'RB'
p4577
tp4578
a(Vwant
g4566
tp4579
a(Vit
S'PRP'
p4580
tp4581
a(V,
S','
tp4582
a(Vwe
g4574
tp4583
a(Vdo
g4572
tp4584
a(Vn't
g4577
tp4585
a(Vneed
g4566
tp4586
a(Vit
g4580
tp4587
aa(lp4588
(VIf
S'IN'
tp4589
a(VI
S'PRP'
tp4590
a(Vgive
S'VBP'
tp4591
a(Vmore
S'JJR'
tp4592
a(Vthan
S'IN'
tp4593
a(Venough
S'RB'
tp4594
a(Vground
S'NN'
tp4595
a(V,
S','
tp4596
a(Vwill
S'MD'
tp4597
a(Vyou
S'PRP'
tp4598
a(Vclaim
S'VB'
tp4599
a(Vit
S'PRP'
tp4600
a(V?
S'.'
tp4601
aa(lp4602
(VI
S'PRP'
tp4603
a(Vwill
S'MD'
tp4604
a(Vtake
S'VB'
p4605
tp4606
a(Vit
S'PRP'
p4607
tp4608
a(Vall
S'DT'
tp4609
a(Vin
S'IN'
tp4610
a(Vone
S'CD'
tp4611
a(Vbreath
S'NN'
tp4612
a(Vand
S'CC'
tp4613
a(Vhold
g4605
tp4614
a(Vit
g4607
tp4615
a(Vdown
S'RP'
tp4616
aa(lp4617
(VAnd
S'CC'
tp4618
a(Vif
S'IN'
tp4619
a(VI
S'PRP'
p4620
tp4621
a(Vtry
S'VBP'
p4622
tp4623
a(Vto
S'TO'
tp4624
a(Vpretend
S'VB'
p4625
tp4626
a(Vthat
S'IN'
tp4627
a(VI
g4620
tp4628
a(Vdo
g4622
tp4629
a(Vn't
S'RB'
tp4630
a(Vhear
g4625
tp4631
a(Vit
S'PRP'
tp4632
aa(lp4633
(VYou
S'PRP'
tp4634
a(Vcan
S'MD'
tp4635
a(Vtell
S'VB'
p4636
tp4637
a(Vme
S'PRP'
tp4638
a(Vto
S'TO'
tp4639
a(Vmove
g4636
tp4640
a(Vand
S'CC'
tp4641
a(VI
S'PRP'
tp4642
a(Vwo
S'MD'
tp4643
a(Vn't
S'RB'
tp4644
a(Vgo
g4636
tp4645
aa(lp4646
(VYou
S'PRP'
tp4647
a(Vcan
S'MD'
tp4648
a(Vtell
S'VB'
p4649
tp4650
a(Vme
S'PRP'
tp4651
a(Vto
S'TO'
tp4652
a(Vtry
g4649
tp4653
a(Vand
S'CC'
tp4654
a(VI
S'PRP'
tp4655
a(Vwo
S'MD'
tp4656
a(Vn't
S'RB'
tp4657
a(Vgo
g4649
tp4658
aa(lp4659
(VIf
S'IN'
tp4660
a(VI
S'PRP'
tp4661
a(Vgive
S'VBP'
tp4662
a(Vmore
S'JJR'
tp4663
a(Vthan
S'IN'
tp4664
a(Venough
S'RB'
tp4665
a(Vground
S'NN'
tp4666
a(V,
S','
tp4667
a(Vwill
S'MD'
tp4668
a(Vyou
S'PRP'
tp4669
a(Vleave
S'VB'
tp4670
a(Vit
S'PRP'
tp4671
a(V?
S'.'
tp4672
aa(lp4673
(VI
S'PRP'
tp4674
a(Vwill
S'MD'
tp4675
a(Vtake
S'VB'
p4676
tp4677
a(Vit
S'PRP'
p4678
tp4679
a(Vall
S'DT'
tp4680
a(Vin
S'IN'
tp4681
a(Vone
S'CD'
tp4682
a(Vbreath
S'NN'
tp4683
a(Vand
S'CC'
tp4684
a(Vhold
g4676
tp4685
a(Vit
g4678
tp4686
a(Vdown
S'RP'
tp4687
aa(lp4688
(VAnd
S'CC'
tp4689
a(Vif
S'IN'
tp4690
a(VI
S'PRP'
p4691
tp4692
a(Vtry
S'VBP'
p4693
tp4694
a(Vto
S'TO'
tp4695
a(Vpretend
S'VB'
p4696
tp4697
a(Vthat
S'IN'
tp4698
a(VI
g4691
tp4699
a(Vdo
g4693
tp4700
a(Vn't
S'RB'
tp4701
a(Vsee
g4696
tp4702
a(Vit
S'PRP'
tp4703
aa(lp4704
(VYou
S'PRP'
tp4705
a(Vcan
S'MD'
tp4706
a(Vtell
S'VB'
p4707
tp4708
a(Vme
S'PRP'
tp4709
a(Vto
S'TO'
tp4710
a(Vmove
g4707
tp4711
a(Vand
S'CC'
tp4712
a(VI
S'PRP'
tp4713
a(Vwo
S'MD'
tp4714
a(Vn't
S'RB'
tp4715
a(Vgo
g4707
tp4716
aa(lp4717
(VYou
S'PRP'
tp4718
a(Vcan
S'MD'
tp4719
a(Vtell
S'VB'
p4720
tp4721
a(Vme
S'PRP'
tp4722
a(Vto
S'TO'
tp4723
a(Vtry
g4720
tp4724
a(Vand
S'CC'
tp4725
a(VI
S'PRP'
tp4726
a(Vwo
S'MD'
tp4727
a(Vn't
S'RB'
tp4728
a(Vgo
g4720
tp4729
aa(lp4730
(VIf
S'IN'
tp4731
a(VI
S'PRP'
tp4732
a(Vgive
S'VBP'
tp4733
a(Vmore
S'JJR'
tp4734
a(Vthan
S'IN'
tp4735
a(Venough
S'RB'
tp4736
a(Vground
S'NN'
tp4737
a(V,
S','
tp4738
a(Vwill
S'MD'
tp4739
a(Vyou
S'PRP'
tp4740
a(Vclaim
S'VB'
tp4741
a(Vit
S'PRP'
tp4742
a(V?
S'.'
tp4743
aa(lp4744
(VI
S'PRP'
tp4745
a(Vwill
S'MD'
tp4746
a(Vtake
S'VB'
p4747
tp4748
a(Vit
S'PRP'
p4749
tp4750
a(Vall
S'DT'
tp4751
a(Vin
S'IN'
tp4752
a(Vone
S'CD'
tp4753
a(Vbreath
S'NN'
tp4754
a(Vand
S'CC'
tp4755
a(Vhold
g4747
tp4756
a(Vit
g4749
tp4757
a(Vdown
S'RP'
tp4758
aa(lp4759
(VAnd
S'CC'
tp4760
a(Vif
S'IN'
tp4761
a(VI
S'PRP'
p4762
tp4763
a(Vtry
S'VBP'
p4764
tp4765
a(Vto
S'TO'
tp4766
a(Vpretend
S'VB'
p4767
tp4768
a(Vthat
S'IN'
tp4769
a(VI
g4762
tp4770
a(Vdo
g4764
tp4771
a(Vn't
S'RB'
tp4772
a(Vhear
g4767
tp4773
a(Vit
S'PRP'
tp4774
aa(lp4775
(VYou
S'PRP'
tp4776
a(Vcan
S'MD'
tp4777
a(Vtell
S'VB'
p4778
tp4779
a(Vme
S'PRP'
tp4780
a(Vto
S'TO'
tp4781
a(Vmove
g4778
tp4782
a(Vand
S'CC'
tp4783
a(VI
S'PRP'
tp4784
a(Vwo
S'MD'
tp4785
a(Vn't
S'RB'
tp4786
a(Vgo
g4778
tp4787
aa(lp4788
(VYou
S'PRP'
tp4789
a(Vcan
S'MD'
tp4790
a(Vtell
S'VB'
p4791
tp4792
a(Vme
S'PRP'
tp4793
a(Vto
S'TO'
tp4794
a(Vtry
g4791
tp4795
a(Vand
S'CC'
tp4796
a(VI
S'PRP'
tp4797
a(Vwo
S'MD'
tp4798
a(Vn't
S'RB'
tp4799
a(Vgo
g4791
tp4800
aa(lp4801
(VIf
S'IN'
tp4802
a(VI
S'PRP'
tp4803
a(Vgive
S'VBP'
tp4804
a(Vmore
S'JJR'
tp4805
a(Vthan
S'IN'
tp4806
a(Venough
S'RB'
tp4807
a(Vground
S'NN'
tp4808
a(V,
S','
tp4809
a(Vwill
S'MD'
tp4810
a(Vyou
S'PRP'
tp4811
a(Vleave
S'VB'
tp4812
a(Vit
S'PRP'
tp4813
a(V?
S'.'
tp4814
aa(lp4815
(VI
S'PRP'
tp4816
a(Vwill
S'MD'
tp4817
a(Vtake
S'VB'
p4818
tp4819
a(Vit
S'PRP'
p4820
tp4821
a(Vall
S'DT'
tp4822
a(Vin
S'IN'
tp4823
a(Vone
S'CD'
tp4824
a(Vbreath
S'NN'
tp4825
a(Vand
S'CC'
tp4826
a(Vhold
g4818
tp4827
a(Vit
g4820
tp4828
a(Vdown
S'RP'
tp4829
aa(lp4830
(VAnd
S'CC'
tp4831
a(Vif
S'IN'
tp4832
a(VI
S'PRP'
p4833
tp4834
a(Vtry
S'VBP'
p4835
tp4836
a(Vto
S'TO'
tp4837
a(Vpretend
S'VB'
p4838
tp4839
a(Vthat
S'IN'
tp4840
a(VI
g4833
tp4841
a(Vdo
g4835
tp4842
a(Vn't
S'RB'
tp4843
a(Vsee
g4838
tp4844
a(Vit
S'PRP'
tp4845
aa(lp4846
(VYou
S'PRP'
tp4847
a(Vcan
S'MD'
tp4848
a(Vtell
S'VB'
p4849
tp4850
a(Vme
S'PRP'
tp4851
a(Vto
S'TO'
tp4852
a(Vmove
g4849
tp4853
a(Vand
S'CC'
tp4854
a(VI
S'PRP'
tp4855
a(Vwo
S'MD'
tp4856
a(Vn't
S'RB'
tp4857
a(Vgo
g4849
tp4858
aa(lp4859
(VYou
S'PRP'
tp4860
a(Vcan
S'MD'
tp4861
a(Vtell
S'VB'
p4862
tp4863
a(Vme
S'PRP'
tp4864
a(Vto
S'TO'
tp4865
a(Vtry
g4862
tp4866
a(Vand
S'CC'
tp4867
a(VI
S'PRP'
tp4868
a(Vwo
S'MD'
tp4869
a(Vn't
S'RB'
tp4870
a(Vgo
g4862
tp4871
aasVGun
p4872
(lp4873
(lp4874
(VYou
S'PRP'
tp4875
a(Vhad
S'VBD'
tp4876
a(Vbetter
S'JJR'
tp4877
a(Vrun
S'VBN'
tp4878
a(Vfrom
S'IN'
tp4879
a(Vme
S'PRP'
tp4880
aa(lp4881
(VWith
S'IN'
tp4882
a(Veverything
S'NN'
tp4883
a(Vyou
S'PRP'
tp4884
a(Vown
S'VBP'
tp4885
aa(lp4886
(V\u2018Cause
S'NN'
tp4887
a(VI
S'PRP'
tp4888
a(Vam
S'VBP'
tp4889
a(Vgon
S'VBG'
tp4890
a(Vna
S'TO'
tp4891
a(Vcome
S'VB'
tp4892
a(Vfor
S'IN'
tp4893
a(Vyou
S'PRP'
tp4894
aa(lp4895
(VWith
S'IN'
tp4896
a(Vall
S'PDT'
tp4897
a(Vthat
S'IN'
tp4898
a(VI
S'PRP'
tp4899
a(Vhave
S'VBP'
tp4900
aa(lp4901
(VI
S'PRP'
tp4902
a(Vam
S'VBP'
tp4903
a(Vgon
S'VBG'
tp4904
a(Vna
S'TO'
tp4905
a(Vbreak
S'VB'
tp4906
a(Vyou
S'PRP'
tp4907
a(Vdown
S'RP'
tp4908
aa(lp4909
(VTo
S'TO'
tp4910
a(Vtiny
S'VB'
tp4911
a(V,
S','
tp4912
a(Vtiny
S'JJ'
tp4913
a(Vparts
S'NNS'
tp4914
aa(lp4915
(VI
S'PRP'
p4916
tp4917
a(Vnever
S'RB'
tp4918
a(Vbelieved
S'VBD'
tp4919
a(Vbut
S'CC'
tp4920
a(VI
g4916
tp4921
a(Vsee
S'VBP'
tp4922
a(Vit
S'PRP'
tp4923
a(Vnow
S'RB'
tp4924
aa(lp4925
(VI
S'PRP'
tp4926
a(V'm
S'VBP'
tp4927
a(Vlearning
S'VBG'
tp4928
a(Vyour
S'PRP$'
tp4929
a(Vlesson
S'NN'
tp4930
aa(lp4931
(VDid
S'NN'
tp4932
a(Vit
S'PRP'
tp4933
a(Vmake
S'VB'
p4934
tp4935
a(Vyou
S'PRP'
tp4936
a(Vfeel
g4934
tp4937
a(Vso
S'RB'
tp4938
a(Vclever
S'JJ'
tp4939
a(V?
S'.'
tp4940
aa(lp4941
(VDid
S'NNP'
tp4942
a(Vyou
S'PRP'
tp4943
a(Vwear
S'VBP'
tp4944
a(Vit
S'PRP'
tp4945
a(Von
S'IN'
tp4946
a(Vyour
S'PRP$'
tp4947
a(Vsleeve
S'NN'
tp4948
a(V?
S'.'
tp4949
aa(lp4950
(VDid
S'NNP'
tp4951
a(Vyou
S'PRP'
tp4952
a(Vsee
S'VBP'
tp4953
a(Vanother
S'DT'
tp4954
a(Vpicture
S'NN'
tp4955
aa(lp4956
(VWhere
S'WRB'
tp4957
a(VI
S'PRP'
tp4958
a(Vwas
S'VBD'
tp4959
a(Vnot
S'RB'
tp4960
a(Va
S'DT'
tp4961
a(Vpart
S'NN'
tp4962
a(Vso
S'RB'
tp4963
a(Vfar
S'RB'
tp4964
a(Ventwined
S'VBN'
tp4965
a(V?
S'.'
tp4966
aa(lp4967
(VThere
S'EX'
tp4968
a(Vis
S'VBZ'
tp4969
a(Vno
S'DT'
tp4970
a(Vother
S'JJ'
tp4971
a(Vway
S'NN'
tp4972
a(V,
S','
tp4973
a(Vnever
S'RB'
tp4974
a(Vrun
S'VBP'
tp4975
a(Vfar
S'RB'
tp4976
aa(lp4977
(VTake
S'VB'
tp4978
a(Va
S'DT'
tp4979
a(Vgood
S'JJ'
tp4980
a(Vswing
S'NN'
tp4981
a(Vat
S'IN'
tp4982
a(Vme
S'PRP'
tp4983
a(Vand
S'CC'
tp4984
a(Veverything
S'NN'
tp4985
a(Vis
S'VBZ'
tp4986
a(Veven
S'RB'
p4987
tp4988
a(Vso
g4987
tp4989
aa(lp4990
(VFinally
S'RB'
tp4991
a(Vwe
S'PRP'
tp4992
a(Vagree
S'VBP'
tp4993
a(V,
S','
tp4994
a(Vno
S'DT'
tp4995
a(Vplace
S'NN'
tp4996
a(Vfor
S'IN'
tp4997
a(Vpromises
S'NNS'
tp4998
a(Vhere
S'RB'
tp4999
aa(lp5000
(VYou
S'PRP'
tp5001
a(V'd
S'MD'
p5002
tp5003
a(Vbetter
S'VB'
p5004
tp5005
a(Vrun
g5004
tp5006
a(V,
S','
tp5007
a(Vyou
S'PRP'
tp5008
a(V'd
g5002
tp5009
a(Vbetter
g5004
tp5010
a(Vrun
g5004
tp5011
a(Vso
S'RB'
tp5012
aa(lp5013
(VHide
S'NNP'
tp5014
a(V,
S','
tp5015
a(Vhide
S'NN'
tp5016
a(V,
S','
tp5017
a(VI
S'PRP'
tp5018
a(Vhave
S'VBP'
tp5019
a(Vburned
S'VBN'
tp5020
a(Vyour
S'PRP$'
tp5021
a(Vbridges
S'NNS'
tp5022
aa(lp5023
(VI
S'PRP'
p5024
tp5025
a(Vwill
S'MD'
tp5026
a(Vbe
S'VB'
tp5027
a(Va
S'DT'
tp5028
a(Vgun
S'NN'
tp5029
a(Vand
S'CC'
tp5030
a(Vit
S'PRP'
tp5031
a(V's
S'VBZ'
tp5032
a(Vyou
S'PRP'
tp5033
a(VI
g5024
tp5034
a(V'll
S'MD'
tp5035
a(Vcome
S'VB'
tp5036
a(Vfor
S'IN'
tp5037
aa(lp5038
(VHide
S'NNP'
tp5039
a(V,
S','
tp5040
a(Vhide
S'NN'
tp5041
a(V,
S','
tp5042
a(Vnow
S'RB'
tp5043
a(Vit
S'PRP'
tp5044
a(V's
S'VBZ'
tp5045
a(Vall
S'DT'
tp5046
a(Vso
S'RB'
tp5047
a(Veasy
S'JJ'
tp5048
aa(lp5049
(VI
S'PRP'
p5050
tp5051
a(Vwill
S'MD'
tp5052
a(Vbe
S'VB'
tp5053
a(Va
S'DT'
tp5054
a(Vgun
S'NN'
tp5055
a(Vand
S'CC'
tp5056
a(Vit
S'PRP'
tp5057
a(V's
S'VBZ'
tp5058
a(Vyou
S'PRP'
tp5059
a(VI
g5050
tp5060
a(V'll
S'MD'
tp5061
a(Vcome
S'VB'
tp5062
a(Vfor
S'IN'
tp5063
aa(lp5064
(VWho
S'WP'
tp5065
a(Vare
S'VBP'
tp5066
a(Vyou
S'PRP'
tp5067
a(Vto
S'TO'
tp5068
a(Vtell
S'VB'
tp5069
a(Vme
S'PRP'
tp5070
a(Vhow
S'WRB'
tp5071
aa(lp5072
(VTo
S'TO'
tp5073
a(Vkeep
S'VB'
tp5074
a(Vmyself
S'PRP'
tp5075
a(Vafloat
S'RB'
tp5076
a(V?
S'.'
tp5077
aa(lp5078
(VI
S'PRP'
tp5079
a(Vtreaded
S'VBD'
tp5080
a(Vwater
S'NN'
tp5081
a(Vall
S'PDT'
tp5082
a(Vthe
S'DT'
tp5083
a(Vwhile
S'NN'
tp5084
aa(lp5085
(VYou
S'PRP'
tp5086
a(Vstuck
S'VBP'
tp5087
a(Vin
S'IN'
tp5088
a(Vthe
S'DT'
tp5089
a(Vknife
S'NN'
p5090
tp5091
a(Vthat
S'IN'
tp5092
a(Vyou
S'PRP'
tp5093
a(Vheld
S'VBD'
tp5094
a(Vat
S'IN'
tp5095
a(Vmy
S'PRP$'
tp5096
a(Vback
g5090
tp5097
aa(lp5098
(VDid
S'NN'
tp5099
a(Vit
S'PRP'
tp5100
a(Vmake
S'VB'
p5101
tp5102
a(Vyou
S'PRP'
tp5103
a(Vfeel
g5101
tp5104
a(Vso
S'RB'
tp5105
a(Vclever
S'JJ'
tp5106
a(V?
S'.'
tp5107
aa(lp5108
(VDid
S'NNP'
tp5109
a(Vyou
S'PRP'
tp5110
a(Vwear
S'VBP'
tp5111
a(Vit
S'PRP'
tp5112
a(Von
S'IN'
tp5113
a(Vyour
S'PRP$'
tp5114
a(Vsleeve
S'NN'
tp5115
a(V?
S'.'
tp5116
aa(lp5117
(VDid
S'NNP'
tp5118
a(Vyou
S'PRP'
tp5119
a(Vsee
S'VBP'
tp5120
a(Vanother
S'DT'
tp5121
a(Vlifetime
S'NN'
tp5122
a(V?
S'.'
tp5123
aa(lp5124
(VWhere
S'WRB'
tp5125
a(VI
S'PRP'
tp5126
a(Vwas
S'VBD'
tp5127
a(Vnot
S'RB'
tp5128
a(Va
S'DT'
tp5129
a(Vpart
S'NN'
tp5130
a(Vso
S'RB'
tp5131
a(Vfar
S'RB'
tp5132
a(Ventwined
S'VBN'
tp5133
a(V?
S'.'
tp5134
aa(lp5135
(VThere
S'EX'
tp5136
a(Vis
S'VBZ'
tp5137
a(Vno
S'DT'
tp5138
a(Vother
S'JJ'
tp5139
a(Vway
S'NN'
tp5140
a(V,
S','
tp5141
a(Vnever
S'RB'
tp5142
a(Vrun
S'VBP'
tp5143
a(Vfar
S'RB'
tp5144
aa(lp5145
(VTake
S'VB'
tp5146
a(Va
S'DT'
tp5147
a(Vgood
S'JJ'
tp5148
a(Vswing
S'NN'
tp5149
a(Vat
S'IN'
tp5150
a(Vme
S'PRP'
tp5151
a(Vand
S'CC'
tp5152
a(Veverything
S'NN'
tp5153
a(Vis
S'VBZ'
tp5154
a(Veven
S'RB'
p5155
tp5156
a(Vso
g5155
tp5157
aa(lp5158
(VFinally
S'RB'
tp5159
a(Vwe
S'PRP'
tp5160
a(Vagree
S'VBP'
tp5161
a(V,
S','
tp5162
a(Vno
S'DT'
tp5163
a(Vplace
S'NN'
tp5164
a(Vfor
S'IN'
tp5165
a(Vpromises
S'NNS'
tp5166
a(Vhere
S'RB'
tp5167
aa(lp5168
(VYou
S'PRP'
tp5169
a(V'd
S'MD'
p5170
tp5171
a(Vbetter
S'VB'
p5172
tp5173
a(Vrun
g5172
tp5174
a(V,
S','
tp5175
a(Vyou
S'PRP'
tp5176
a(V'd
g5170
tp5177
a(Vbetter
g5172
tp5178
a(Vrun
g5172
tp5179
a(Vso
S'RB'
tp5180
aa(lp5181
(VHide
S'NNP'
tp5182
a(V,
S','
tp5183
a(Vhide
S'NN'
tp5184
a(V,
S','
tp5185
a(VI
S'PRP'
tp5186
a(Vhave
S'VBP'
tp5187
a(Vburned
S'VBN'
tp5188
a(Vyour
S'PRP$'
tp5189
a(Vbridges
S'NNS'
tp5190
aa(lp5191
(VI
S'PRP'
p5192
tp5193
a(Vwill
S'MD'
tp5194
a(Vbe
S'VB'
tp5195
a(Va
S'DT'
tp5196
a(Vgun
S'NN'
tp5197
a(Vand
S'CC'
tp5198
a(Vit
S'PRP'
tp5199
a(V's
S'VBZ'
tp5200
a(Vyou
S'PRP'
tp5201
a(VI
g5192
tp5202
a(V'll
S'MD'
tp5203
a(Vcome
S'VB'
tp5204
a(Vfor
S'IN'
tp5205
aa(lp5206
(VHide
S'NNP'
tp5207
a(V,
S','
tp5208
a(Vhide
S'NN'
tp5209
a(V,
S','
tp5210
a(Vnow
S'RB'
tp5211
a(Vit
S'PRP'
tp5212
a(V's
S'VBZ'
tp5213
a(Vall
S'DT'
tp5214
a(Vso
S'RB'
tp5215
a(Veasy
S'JJ'
tp5216
aa(lp5217
(VI
S'PRP'
p5218
tp5219
a(Vwill
S'MD'
tp5220
a(Vbe
S'VB'
tp5221
a(Va
S'DT'
tp5222
a(Vgun
S'NN'
tp5223
a(Vand
S'CC'
tp5224
a(Vit
S'PRP'
tp5225
a(V's
S'VBZ'
tp5226
a(Vyou
S'PRP'
tp5227
a(VI
g5218
tp5228
a(V'll
S'MD'
tp5229
a(Vcome
S'VB'
tp5230
a(Vfor
S'IN'
tp5231
aa(lp5232
(VThere
S'EX'
tp5233
a(Vis
S'VBZ'
tp5234
a(Vno
S'DT'
tp5235
a(Vother
S'JJ'
tp5236
a(Vway
S'NN'
tp5237
a(V,
S','
tp5238
a(Vnever
S'RB'
tp5239
a(Vrun
S'VBP'
tp5240
a(Vfar
S'RB'
tp5241
aa(lp5242
(VTake
S'VB'
tp5243
a(Va
S'DT'
tp5244
a(Vgood
S'JJ'
tp5245
a(Vswing
S'NN'
tp5246
a(Vat
S'IN'
tp5247
a(Vme
S'PRP'
tp5248
a(Vand
S'CC'
tp5249
a(Veverything
S'NN'
tp5250
a(Vis
S'VBZ'
tp5251
a(Veven
S'RB'
p5252
tp5253
a(Vso
g5252
tp5254
aa(lp5255
(VFinally
S'RB'
tp5256
a(Vwe
S'PRP'
tp5257
a(Vagree
S'VBP'
tp5258
a(V,
S','
tp5259
a(Vno
S'DT'
tp5260
a(Vplace
S'NN'
tp5261
a(Vfor
S'IN'
tp5262
a(Vpromises
S'NNS'
tp5263
a(Vhere
S'RB'
tp5264
aa(lp5265
(VYou
S'PRP'
tp5266
a(V'd
S'MD'
p5267
tp5268
a(Vbetter
S'VB'
p5269
tp5270
a(Vrun
g5269
tp5271
a(V,
S','
tp5272
a(Vyou
S'PRP'
tp5273
a(V'd
g5267
tp5274
a(Vbetter
g5269
tp5275
a(Vrun
g5269
tp5276
a(Vso
S'RB'
tp5277
aa(lp5278
(VHide
S'NNP'
tp5279
a(V,
S','
tp5280
a(Vhide
S'NN'
tp5281
a(V,
S','
tp5282
a(VI
S'PRP'
tp5283
a(Vhave
S'VBP'
tp5284
a(Vburned
S'VBN'
tp5285
a(Vyour
S'PRP$'
tp5286
a(Vbridges
S'NNS'
tp5287
aa(lp5288
(VI
S'PRP'
p5289
tp5290
a(Vwill
S'MD'
tp5291
a(Vbe
S'VB'
tp5292
a(Va
S'DT'
tp5293
a(Vgun
S'NN'
tp5294
a(Vand
S'CC'
tp5295
a(Vit
S'PRP'
tp5296
a(V's
S'VBZ'
tp5297
a(Vyou
S'PRP'
tp5298
a(VI
g5289
tp5299
a(V'll
S'MD'
tp5300
a(Vcome
S'VB'
tp5301
a(Vfor
S'IN'
tp5302
aa(lp5303
(VHide
S'NNP'
tp5304
a(V,
S','
tp5305
a(Vhide
S'NN'
tp5306
a(V,
S','
tp5307
a(Vnow
S'RB'
tp5308
a(Vit
S'PRP'
tp5309
a(V's
S'VBZ'
tp5310
a(Vall
S'DT'
tp5311
a(Vso
S'RB'
tp5312
a(Veasy
S'JJ'
tp5313
aa(lp5314
(VI
S'PRP'
p5315
tp5316
a(Vwill
S'MD'
tp5317
a(Vbe
S'VB'
tp5318
a(Va
S'DT'
tp5319
a(Vgun
S'NN'
tp5320
a(Vand
S'CC'
tp5321
a(Vit
S'PRP'
tp5322
a(V's
S'VBZ'
tp5323
a(Vyou
S'PRP'
tp5324
a(VI
g5315
tp5325
a(V'll
S'MD'
tp5326
a(Vcome
S'VB'
tp5327
a(Vfor
S'IN'
tp5328
aa(lp5329
(VAnd
S'CC'
tp5330
a(Vit
S'PRP'
tp5331
a(V's
S'VBZ'
tp5332
a(Vyou
S'PRP'
tp5333
a(VI
S'PRP'
tp5334
a(V'll
S'MD'
tp5335
a(Vcome
S'VB'
tp5336
a(Vfor
S'IN'
tp5337
aa(lp5338
(VAnd
S'CC'
tp5339
a(Vit
S'PRP'
tp5340
a(V's
S'VBZ'
tp5341
a(Vyou
S'PRP'
tp5342
a(VI
S'PRP'
tp5343
a(V'll
S'MD'
tp5344
a(Vcome
S'VB'
tp5345
a(Vfor
S'IN'
tp5346
aa(lp5347
(VAnd
S'CC'
tp5348
a(Vit
S'PRP'
tp5349
a(V's
S'VBZ'
tp5350
a(Vyou
S'PRP'
tp5351
a(VI
S'PRP'
tp5352
a(V'll
S'MD'
tp5353
a(Vcome
S'VB'
tp5354
a(Vfor
S'IN'
tp5355
aa(lp5356
(Vand
S'CC'
tp5357
a(Vit
S'PRP'
tp5358
a(V's
S'VBZ'
tp5359
a(Vyou
S'PRP'
tp5360
a(VI
S'PRP'
tp5361
a(V'll
S'MD'
tp5362
a(Vcome
S'VB'
tp5363
a(Vfor
S'IN'
tp5364
aa(lp5365
(VAnd
S'CC'
tp5366
a(VI
S'PRP'
tp5367
a(V'm
S'VBP'
tp5368
a(Vgon
S'VBG'
tp5369
a(Vna
S'TO'
tp5370
a(Vsee
S'VB'
p5371
tp5372
a(Vthat
S'IN'
tp5373
a(Vyou
S'PRP'
tp5374
a(Vwo
S'MD'
tp5375
a(Vn't
S'RB'
tp5376
a(Vgo
g5371
tp5377
a(Vfar
S'RB'
tp5378
aa(lp5379
(VAnd
S'CC'
tp5380
a(VI
S'PRP'
tp5381
a(V'm
S'VBP'
tp5382
a(Vgon
S'VBG'
tp5383
a(Vna
S'TO'
tp5384
a(Vsee
S'VB'
p5385
tp5386
a(Vthat
S'IN'
tp5387
a(Vyou
S'PRP'
tp5388
a(Vwo
S'MD'
tp5389
a(Vn't
S'RB'
tp5390
a(Vgo
g5385
tp5391
a(Vfar
S'RB'
tp5392
aa(lp5393
(VAnd
S'CC'
tp5394
a(VI
S'PRP'
tp5395
a(V'm
S'VBP'
tp5396
a(Vgon
S'VBG'
tp5397
a(Vna
S'TO'
tp5398
a(Vsee
S'VB'
p5399
tp5400
a(Vthat
S'IN'
tp5401
a(Vyou
S'PRP'
tp5402
a(Vwo
S'MD'
tp5403
a(Vn't
S'RB'
tp5404
a(Vgo
g5399
tp5405
a(Vfar
S'RB'
tp5406
aa(lp5407
(VAnd
S'CC'
tp5408
a(VI
S'PRP'
tp5409
a(V'm
S'VBP'
tp5410
a(Vgon
S'VBG'
tp5411
a(Vna
S'TO'
tp5412
a(Vsee
S'VB'
p5413
tp5414
a(Vthat
S'IN'
tp5415
a(Vyou
S'PRP'
tp5416
a(Vwo
S'MD'
tp5417
a(Vn't
S'RB'
tp5418
a(Vgo
g5413
tp5419
a(Vfar
S'RB'
tp5420
aasVKeep You on My Side
p5421
(lp5422
(lp5423
(VEveryone
S'NN'
tp5424
a(Vsees
S'NNS'
tp5425
a(V,
S','
tp5426
a(Vbut
S'CC'
tp5427
a(Vonly
S'RB'
tp5428
a(VI
S'PRP'
tp5429
a(Vknow
S'VBP'
tp5430
aa(lp5431
(VNothing
S'NN'
p5432
tp5433
a(Vto
S'TO'
p5434
tp5435
a(Vlose
S'VB'
p5436
tp5437
a(V,
S','
tp5438
a(Vnothing
S'NN'
tp5439
a(Vto
g5434
tp5440
a(Vsave
g5436
tp5441
a(Vto
g5434
tp5442
a(Vmake
g5436
tp5443
a(Va
S'DT'
tp5444
a(Vwhole
g5432
tp5445
aa(lp5446
(VWhat
S'WP'
tp5447
a(Vif
S'IN'
tp5448
a(VI
S'PRP'
tp5449
a(Vshould
S'MD'
tp5450
a(Vmake
S'VB'
tp5451
a(Va
S'DT'
tp5452
a(Vloss
S'NN'
tp5453
a(V?
S'.'
tp5454
aa(lp5455
(VHold
S'VB'
tp5456
a(Vup
S'RP'
tp5457
a(Vboth
S'DT'
tp5458
a(Vmy
S'PRP$'
p5459
tp5460
a(Vhands
S'NNS'
p5461
tp5462
a(V,
S','
tp5463
a(Vmy
g5459
tp5464
a(Vfingers
g5461
tp5465
a(Vcrossed
S'VBD'
tp5466
aa(lp5467
(VI
S'PRP'
tp5468
a(Vdo
S'VBP'
tp5469
a(Vn't
S'RB'
tp5470
a(Vsleep
S'VB'
tp5471
a(Vwell
S'RB'
tp5472
a(V,
S','
tp5473
a(Vlaying
S'VBG'
tp5474
a(Vlow
S'JJ'
tp5475
aa(lp5476
(VNever
S'RB'
p5477
tp5478
a(Vkeepin
S'NN'
p5479
tp5480
a(V'
S"''"
p5481
tp5482
a(Vup
g5477
tp5483
a(V,
S','
tp5484
a(Vnever
S'RB'
tp5485
a(Vlettin
g5479
tp5486
a(V'
g5481
tp5487
a(Vgo
S'VB'
tp5488
aa(lp5489
(VWhat
S'WP'
tp5490
a(Vif
S'IN'
tp5491
a(VI
S'PRP'
tp5492
a(Vshould
S'MD'
tp5493
a(Vlook
S'VB'
tp5494
a(Vaway
S'RP'
tp5495
a(V?
S'.'
tp5496
aa(lp5497
(VEvery
S'DT'
tp5498
a(Vhuman
S'JJ'
tp5499
a(Vtouch
S'NN'
tp5500
a(Vwill
S'MD'
tp5501
a(Vbe
S'VB'
tp5502
a(Vrepayed
S'VBN'
tp5503
aa(lp5504
(VWithout
S'IN'
tp5505
a(Vrestraint
S'NN'
tp5506
aa(lp5507
(VWithin
S'IN'
tp5508
a(Vour
S'PRP$'
tp5509
a(Vveins
S'NNS'
tp5510
aa(lp5511
(VWe
S'PRP'
tp5512
a(Vbide
S'VBP'
tp5513
a(Vour
S'PRP$'
tp5514
a(Vtime
S'NN'
tp5515
a(V,
S','
tp5516
a(Vstay
S'VB'
tp5517
a(Vafloat
S'RB'
tp5518
aa(lp5519
(VKeepin
S'NNP'
tp5520
a(V'
S"''"
tp5521
a(Vthe
S'DT'
tp5522
a(Vsun
S'NN'
tp5523
a(Vup
S'RP'
tp5524
a(Voff
S'IN'
tp5525
a(Vour
S'PRP$'
tp5526
a(Vbones
S'NNS'
tp5527
aa(lp5528
(VI
S'PRP'
p5529
tp5530
a(Vnever
S'RB'
p5531
tp5532
a(Vasked
S'VBD'
p5533
tp5534
a(Vto
S'TO'
tp5535
a(Vknow
S'VB'
tp5536
a(V,
S','
tp5537
a(VI
g5529
tp5538
a(Vnever
g5531
tp5539
a(Vplanned
g5533
tp5540
aa(lp5541
(VTill
S'VB'
tp5542
a(Vit
S'PRP'
tp5543
a(Vwas
S'VBD'
tp5544
a(Vswept
S'VBN'
tp5545
a(Vout
S'IN'
tp5546
a(Vof
S'IN'
tp5547
a(Vmy
S'PRP$'
tp5548
a(Vhand
S'NN'
tp5549
aa(lp5550
(VWe
S'PRP'
tp5551
a(Vbide
S'VBP'
tp5552
a(Vour
S'PRP$'
tp5553
a(Vtime
S'NN'
tp5554
a(V,
S','
tp5555
a(Vstay
S'VB'
tp5556
a(Vafloat
S'RB'
tp5557
aa(lp5558
(VKeepin
S'NNP'
tp5559
a(V'
S"''"
tp5560
a(Vthe
S'DT'
tp5561
a(Vdying
S'VBG'
tp5562
a(Vlight
S'NN'
tp5563
a(Vexposed
S'VBD'
tp5564
aa(lp5565
(VI
S'PRP'
p5566
tp5567
a(Vnever
S'RB'
p5568
tp5569
a(Vasked
S'VBD'
p5570
tp5571
a(Vto
S'TO'
tp5572
a(Vknow
S'VB'
tp5573
a(V,
S','
tp5574
a(VI
g5566
tp5575
a(Vnever
g5568
tp5576
a(Vlied
g5570
tp5577
aa(lp5578
(VSo
S'RB'
tp5579
a(VI
S'PRP'
tp5580
a(Vcould
S'MD'
tp5581
a(Vkeep
S'VB'
tp5582
a(Vyou
S'PRP'
tp5583
a(Von
S'IN'
tp5584
a(Vmy
S'PRP$'
tp5585
a(Vside
S'NN'
tp5586
aa(lp5587
(VWe
S'PRP'
tp5588
a(Vfeel
S'VBP'
tp5589
a(Vthe
S'DT'
tp5590
a(Vsame
S'JJ'
tp5591
aa(lp5592
(VWithout
S'IN'
tp5593
a(Vrestraint
S'NN'
tp5594
aa(lp5595
(VWe
S'PRP'
tp5596
a(Vfeel
S'VBP'
tp5597
a(Vthe
S'DT'
tp5598
a(Vsame
S'JJ'
tp5599
aa(lp5600
(VWithin
S'IN'
tp5601
a(Vour
S'PRP$'
tp5602
a(Vveins
S'NNS'
tp5603
aa(lp5604
(VEveryone
S'NN'
tp5605
a(Vcomes
S'VBZ'
tp5606
a(V,
S','
tp5607
a(Vbut
S'CC'
tp5608
a(Vonly
S'RB'
tp5609
a(VI
S'PRP'
tp5610
a(Vstay
S'VBP'
tp5611
aa(lp5612
(VNowhere
S'RB'
p5613
tp5614
a(Vto
S'TO'
p5615
tp5616
a(Vlook
S'VB'
p5617
tp5618
a(V,
S','
tp5619
a(Vnowhere
g5613
tp5620
a(Vto
g5615
tp5621
a(Vturn
g5617
tp5622
a(Vto
g5615
tp5623
a(Vfall
g5617
tp5624
a(Vaway
S'RP'
tp5625
aa(lp5626
(VWhat
S'WP'
tp5627
a(Vif
S'IN'
tp5628
a(VI
S'PRP'
tp5629
a(Vshould
S'MD'
tp5630
a(Vcall
S'VB'
tp5631
a(Vit
S'PRP'
tp5632
a(Voff
S'RP'
tp5633
a(V?
S'.'
tp5634
aa(lp5635
(VHold
S'VB'
tp5636
a(Vup
S'RP'
tp5637
a(Vmy
S'PRP$'
p5638
tp5639
a(Vdemands
S'NNS'
tp5640
a(Vwith
S'IN'
tp5641
a(Vmy
g5638
tp5642
a(Vheart
S'NN'
tp5643
a(Vuncrossed
S'VBD'
tp5644
aa(lp5645
(VI
S'PRP'
tp5646
a(Vdo
S'VBP'
tp5647
a(Vn't
S'RB'
tp5648
a(Vsleep
S'VB'
tp5649
a(Vwell
S'RB'
tp5650
a(V,
S','
tp5651
a(Vlaying
S'VBG'
tp5652
a(Vlow
S'JJ'
tp5653
aa(lp5654
(VNever
S'RB'
p5655
tp5656
a(Vkeepin
S'NN'
p5657
tp5658
a(V'
S"''"
p5659
tp5660
a(Vup
g5655
tp5661
a(V,
S','
tp5662
a(Vnever
S'RB'
tp5663
a(Vlettin
g5657
tp5664
a(V'
g5659
tp5665
a(Vgo
S'VB'
tp5666
aa(lp5667
(VWhat
S'WP'
tp5668
a(Vif
S'IN'
tp5669
a(VI
S'PRP'
tp5670
a(Vshould
S'MD'
tp5671
a(Vlet
S'VB'
p5672
tp5673
a(Vit
S'PRP'
tp5674
a(Vfade
g5672
tp5675
aa(lp5676
(VEvery
S'DT'
tp5677
a(Vhuman
S'JJ'
tp5678
a(Vtouch
S'NN'
tp5679
a(Vwill
S'MD'
tp5680
a(Vbe
S'VB'
tp5681
a(Vrepayed
S'VBN'
tp5682
aa(lp5683
(VWithout
S'IN'
tp5684
a(Vrestraint
S'NN'
tp5685
aa(lp5686
(VWithin
S'IN'
tp5687
a(Vour
S'PRP$'
tp5688
a(Vveins
S'NNS'
tp5689
aa(lp5690
(VWe
S'PRP'
tp5691
a(Vbide
S'VBP'
tp5692
a(Vour
S'PRP$'
tp5693
a(Vtime
S'NN'
tp5694
a(V,
S','
tp5695
a(Vstay
S'VB'
tp5696
a(Vafloat
S'RB'
tp5697
aa(lp5698
(VKeepin
S'NNP'
tp5699
a(V'
S"''"
tp5700
a(Vthe
S'DT'
tp5701
a(Vsun
S'NN'
tp5702
a(Vup
S'RP'
tp5703
a(Voff
S'IN'
tp5704
a(Vour
S'PRP$'
tp5705
a(Vbones
S'NNS'
tp5706
aa(lp5707
(VI
S'PRP'
p5708
tp5709
a(Vnever
S'RB'
p5710
tp5711
a(Vasked
S'VBD'
p5712
tp5713
a(Vto
S'TO'
tp5714
a(Vknow
S'VB'
tp5715
a(V,
S','
tp5716
a(VI
g5708
tp5717
a(Vnever
g5710
tp5718
a(Vplanned
g5712
tp5719
aa(lp5720
(VTill
S'VB'
tp5721
a(Vit
S'PRP'
tp5722
a(Vwas
S'VBD'
tp5723
a(Vswept
S'VBN'
tp5724
a(Vout
S'IN'
tp5725
a(Vof
S'IN'
tp5726
a(Vmy
S'PRP$'
tp5727
a(Vhand
S'NN'
tp5728
aa(lp5729
(VWe
S'PRP'
tp5730
a(Vbide
S'VBP'
tp5731
a(Vour
S'PRP$'
tp5732
a(Vtime
S'NN'
tp5733
a(V,
S','
tp5734
a(Vstay
S'VB'
tp5735
a(Vafloat
S'RB'
tp5736
aa(lp5737
(VKeepin
S'NNP'
tp5738
a(V'
S"''"
tp5739
a(Vthe
S'DT'
tp5740
a(Vdying
S'VBG'
tp5741
a(Vlight
S'NN'
tp5742
a(Vexposed
S'VBD'
tp5743
aa(lp5744
(VI
S'PRP'
p5745
tp5746
a(Vnever
S'RB'
p5747
tp5748
a(Vasked
S'VBD'
p5749
tp5750
a(Vto
S'TO'
tp5751
a(Vknow
S'VB'
tp5752
a(V,
S','
tp5753
a(VI
g5745
tp5754
a(Vnever
g5747
tp5755
a(Vlied
g5749
tp5756
aa(lp5757
(VSo
S'RB'
tp5758
a(VI
S'PRP'
tp5759
a(Vcould
S'MD'
tp5760
a(Vkeep
S'VB'
tp5761
a(Vyou
S'PRP'
tp5762
a(Von
S'IN'
tp5763
a(Vmy
S'PRP$'
tp5764
a(Vside
S'NN'
tp5765
aa(lp5766
(VWe
S'PRP'
tp5767
a(Vfeel
S'VBP'
tp5768
a(Vthe
S'DT'
tp5769
a(Vsame
S'JJ'
tp5770
aa(lp5771
(VWithout
S'IN'
tp5772
a(Vrestraint
S'NN'
tp5773
aa(lp5774
(VWe
S'PRP'
tp5775
a(Vfeel
S'VBP'
tp5776
a(Vthe
S'DT'
tp5777
a(Vsame
S'JJ'
tp5778
aa(lp5779
(VWithin
S'IN'
tp5780
a(Vour
S'PRP$'
tp5781
a(Vveins
S'NNS'
tp5782
aa(lp5783
(VWe
S'PRP'
tp5784
a(Vfeel
S'VBP'
tp5785
a(Vthe
S'DT'
tp5786
a(Vsame
S'JJ'
tp5787
aa(lp5788
(V(
S'('
tp5789
a(VPayin
S'NNP'
tp5790
a(V'
S'POS'
tp5791
a(Vback
S'RP'
tp5792
a(Vall
S'DT'
tp5793
a(Vour
S'PRP$'
tp5794
a(Vchances
S'NNS'
tp5795
a(V,
S','
tp5796
a(Vpayin
S'NN'
tp5797
a(V'
S"''"
tp5798
a(Vback
S'RB'
tp5799
a(Vwhat
S'WP'
tp5800
a(Vwe
S'PRP'
tp5801
a(Vtook
S'VBD'
tp5802
a(V)
S')'
tp5803
aa(lp5804
(VWithout
S'IN'
tp5805
a(Vrestraint
S'NN'
tp5806
aa(lp5807
(V(
S'('
tp5808
a(VPayin
S'NNP'
tp5809
a(V'
S'POS'
tp5810
a(Vback
S'RP'
tp5811
a(Vall
S'DT'
tp5812
a(Vour
S'PRP$'
tp5813
a(Vchances
S'NNS'
tp5814
a(V,
S','
tp5815
a(Vpayin
S'NN'
tp5816
a(V'
S"''"
tp5817
a(Vback
S'RB'
tp5818
a(Vwhat
S'WP'
tp5819
a(Vwe
S'PRP'
tp5820
a(Vtook
S'VBD'
tp5821
a(V)
S')'
tp5822
aa(lp5823
(VWe
S'PRP'
tp5824
a(Vfeel
S'VBP'
tp5825
a(Vthe
S'DT'
tp5826
a(Vsame
S'JJ'
tp5827
aa(lp5828
(V(
S'('
tp5829
a(VPayin
S'NNP'
tp5830
a(V'
S'POS'
tp5831
a(Vback
S'RP'
tp5832
a(Vall
S'DT'
tp5833
a(Vour
S'PRP$'
tp5834
a(Vchances
S'NNS'
tp5835
a(V,
S','
tp5836
a(Vpayin
S'NN'
tp5837
a(V'
S"''"
tp5838
a(Vback
S'RB'
tp5839
a(Vwhat
S'WP'
tp5840
a(Vwe
S'PRP'
tp5841
a(Vtook
S'VBD'
tp5842
a(V)
S')'
tp5843
aa(lp5844
(VWithin
S'IN'
tp5845
a(Vour
S'PRP$'
tp5846
a(Vveins
S'NNS'
tp5847
aa(lp5848
(V(
S'('
tp5849
a(VPayin
S'NNP'
tp5850
a(V'
S'POS'
tp5851
a(Vback
S'RP'
tp5852
a(Vall
S'DT'
tp5853
a(Vour
S'PRP$'
tp5854
a(Vchances
S'NNS'
tp5855
a(V,
S','
tp5856
a(Vpayin
S'NN'
tp5857
a(V'
S"''"
tp5858
a(Vback
S'RB'
tp5859
a(Vwhat
S'WP'
tp5860
a(Vwe
S'PRP'
tp5861
a(Vtook
S'VBD'
tp5862
a(V)
S')'
tp5863
aa(lp5864
(VWe
S'PRP'
tp5865
a(Vbide
S'VBP'
tp5866
a(Vour
S'PRP$'
tp5867
a(Vtime
S'NN'
tp5868
a(V,
S','
tp5869
a(Vstay
S'VB'
tp5870
a(Vafloat
S'RB'
tp5871
aa(lp5872
(VKeepin
S'NNP'
tp5873
a(V'
S"''"
tp5874
a(Vthe
S'DT'
tp5875
a(Vsun
S'NN'
tp5876
a(Vup
S'RP'
tp5877
a(Voff
S'IN'
tp5878
a(Vour
S'PRP$'
tp5879
a(Vbones
S'NNS'
tp5880
aa(lp5881
(VI
S'PRP'
p5882
tp5883
a(Vnever
S'RB'
p5884
tp5885
a(Vasked
S'VBD'
p5886
tp5887
a(Vto
S'TO'
tp5888
a(Vknow
S'VB'
tp5889
a(V,
S','
tp5890
a(VI
g5882
tp5891
a(Vnever
g5884
tp5892
a(Vplanned
g5886
tp5893
aa(lp5894
(VTill
S'VB'
tp5895
a(Vit
S'PRP'
tp5896
a(Vwas
S'VBD'
tp5897
a(Vswept
S'VBN'
tp5898
a(Vout
S'IN'
tp5899
a(Vof
S'IN'
tp5900
a(Vmy
S'PRP$'
tp5901
a(Vhand
S'NN'
tp5902
aa(lp5903
(VWe
S'PRP'
tp5904
a(Vbide
S'VBP'
tp5905
a(Vour
S'PRP$'
tp5906
a(Vtime
S'NN'
tp5907
a(V,
S','
tp5908
a(Vstay
S'VB'
tp5909
a(Vafloat
S'RB'
tp5910
aa(lp5911
(VKeepin
S'NNP'
tp5912
a(V'
S"''"
tp5913
a(Vthe
S'DT'
tp5914
a(Vdying
S'VBG'
tp5915
a(Vlight
S'NN'
tp5916
a(Vexposed
S'VBD'
tp5917
aa(lp5918
(VI
S'PRP'
p5919
tp5920
a(Vnever
S'RB'
p5921
tp5922
a(Vasked
S'VBD'
p5923
tp5924
a(Vto
S'TO'
tp5925
a(Vknow
S'VB'
tp5926
a(V,
S','
tp5927
a(VI
g5919
tp5928
a(Vnever
g5921
tp5929
a(Vlied
g5923
tp5930
aa(lp5931
(VSo
S'RB'
tp5932
a(VI
S'PRP'
tp5933
a(Vcould
S'MD'
tp5934
a(Vkeep
S'VB'
tp5935
a(Vyou
S'PRP'
tp5936
a(Von
S'IN'
tp5937
a(Vmy
S'PRP$'
tp5938
a(Vside
S'NN'
tp5939
aa(lp5940
(VWe
S'PRP'
tp5941
a(Vfeel
S'VBP'
tp5942
a(Vthe
S'DT'
tp5943
a(Vsame
S'JJ'
tp5944
aa(lp5945
(VWithout
S'IN'
tp5946
a(Vrestraint
S'NN'
tp5947
aa(lp5948
(VWe
S'PRP'
tp5949
a(Vfeel
S'VBP'
tp5950
a(Vthe
S'DT'
tp5951
a(Vsame
S'JJ'
tp5952
aa(lp5953
(VWithin
S'IN'
tp5954
a(Vour
S'PRP$'
tp5955
a(Vveins
S'NNS'
tp5956
aa(lp5957
(VWe
S'PRP'
tp5958
a(Vfeel
S'VBP'
tp5959
a(Vthe
S'DT'
tp5960
a(Vsame
S'JJ'
tp5961
aa(lp5962
(V(
S'('
tp5963
a(VPayin
S'NNP'
tp5964
a(V'
S'POS'
tp5965
a(Vback
S'RP'
tp5966
a(Vall
S'DT'
tp5967
a(Vour
S'PRP$'
tp5968
a(Vchances
S'NNS'
tp5969
a(V,
S','
tp5970
a(Vpayin
S'NN'
tp5971
a(V'
S"''"
tp5972
a(Vback
S'RB'
tp5973
a(Vwhat
S'WP'
tp5974
a(Vwe
S'PRP'
tp5975
a(Vtook
S'VBD'
tp5976
a(V)
S')'
tp5977
aa(lp5978
(VWithout
S'IN'
tp5979
a(Vrestraint
S'NN'
tp5980
aa(lp5981
(V(
S'('
tp5982
a(VPayin
S'NNP'
tp5983
a(V'
S'POS'
tp5984
a(Vback
S'RP'
tp5985
a(Vall
S'DT'
tp5986
a(Vour
S'PRP$'
tp5987
a(Vchances
S'NNS'
tp5988
a(V,
S','
tp5989
a(Vpayin
S'NN'
tp5990
a(V'
S"''"
tp5991
a(Vback
S'RB'
tp5992
a(Vwhat
S'WP'
tp5993
a(Vwe
S'PRP'
tp5994
a(Vtook
S'VBD'
tp5995
a(V)
S')'
tp5996
aa(lp5997
(VWe
S'PRP'
tp5998
a(Vfeel
S'VBP'
tp5999
a(Vthe
S'DT'
tp6000
a(Vsame
S'JJ'
tp6001
aa(lp6002
(V(
S'('
tp6003
a(VPayin
S'NNP'
tp6004
a(V'
S'POS'
tp6005
a(Vback
S'RP'
tp6006
a(Vall
S'DT'
tp6007
a(Vour
S'PRP$'
tp6008
a(Vchances
S'NNS'
tp6009
a(V,
S','
tp6010
a(Vpayin
S'NN'
tp6011
a(V'
S"''"
tp6012
a(Vback
S'RB'
tp6013
a(Vwhat
S'WP'
tp6014
a(Vwe
S'PRP'
tp6015
a(Vtook
S'VBD'
tp6016
a(V)
S')'
tp6017
aa(lp6018
(VWithin
S'IN'
tp6019
a(Vour
S'PRP$'
tp6020
a(Vveins
S'NNS'
tp6021
aa(lp6022
(V(
S'('
tp6023
a(VPayin
S'NNP'
tp6024
a(V'
S'POS'
tp6025
a(Vback
S'RP'
tp6026
a(Vall
S'DT'
tp6027
a(Vour
S'PRP$'
tp6028
a(Vchances
S'NNS'
p6029
tp6030
a(V,
S','
tp6031
a(Vchances
g6029
tp6032
a(V,
S','
tp6033
a(Vchances
g6029
tp6034
a(V,
S','
tp6035
a(Vchances
g6029
tp6036
a(V)
S')'
tp6037
aa(lp6038
(V(
S'('
tp6039
a(VChances
S'NNS'
p6040
tp6041
a(V,
S','
tp6042
a(Vchances
g6040
tp6043
a(V,
S','
tp6044
a(Vchances
g6040
tp6045
a(V,
S','
tp6046
a(Vchances
g6040
tp6047
a(V,
S','
tp6048
a(Vchances
g6040
tp6049
a(V,
S','
tp6050
a(Vchances
g6040
tp6051
a(V,
S','
tp6052
a(Vchances
g6040
tp6053
a(V)
S')'
tp6054
aasVZVVL
p6055
(lp6056
(lp6057
(VSo
S'RB'
tp6058
a(V,
S','
tp6059
a(VI
S'PRP'
tp6060
a(Vthink
S'VBP'
tp6061
a(Vit
S'PRP'
tp6062
a(V's
S'VBZ'
tp6063
a(Vtime
S'NN'
tp6064
aa(lp6065
(VTo
S'TO'
tp6066
a(Vface
S'VB'
tp6067
a(Vyourself
S'PRP'
tp6068
a(Vagain
S'RB'
tp6069
aa(lp6070
(VIt
S'PRP'
tp6071
a(V's
S'VBZ'
tp6072
a(Vnot
S'RB'
tp6073
a(Vtoo
S'RB'
tp6074
a(Vlate
S'JJ'
tp6075
aa(lp6076
(VThere
S'EX'
tp6077
a(V's
S'VBZ'
tp6078
a(Valways
S'RB'
tp6079
a(Vtime
S'NN'
tp6080
aa(lp6081
(VTo
S'TO'
tp6082
a(Vsteal
S'VB'
tp6083
a(Vyourself
S'PRP'
tp6084
aa(lp6085
(VWhat
S'WP'
tp6086
a(Vare
S'VBP'
tp6087
a(Vyou
S'PRP'
tp6088
a(Vlooking
S'VBG'
tp6089
a(Vfor
S'IN'
tp6090
aa(lp6091
(VWe
S'PRP'
tp6092
a(Vboth
S'DT'
tp6093
a(Vare
S'VBP'
tp6094
a(Vfree
S'JJ'
tp6095
aa(lp6096
(VIn
S'IN'
tp6097
a(Vthe
S'DT'
tp6098
a(Vhere
S'RB'
tp6099
a(Vand
S'CC'
tp6100
a(Vnow
S'RB'
tp6101
aa(lp6102
(VSo
S'RB'
tp6103
a(Vtake
S'VB'
tp6104
a(Vmy
S'PRP$'
tp6105
a(Vhand
S'NN'
tp6106
aa(lp6107
(VAnd
S'CC'
tp6108
a(Vdo
S'VBP'
p6109
tp6110
a(Vn't
S'RB'
tp6111
a(Vfear
S'VB'
tp6112
a(Vwhat
S'WP'
tp6113
a(Vyou
S'PRP'
tp6114
a(Vfind
g6109
tp6115
aa(lp6116
(VOn
S'IN'
tp6117
a(Vyour
S'PRP$'
tp6118
a(Vown
S'JJ'
tp6119
aa(lp6120
(VOpen
S'VB'
p6121
tp6122
a(Vup
S'RP'
p6123
tp6124
a(V,
S','
tp6125
a(Vgive
g6121
tp6126
a(Vit
S'PRP'
tp6127
a(Vup
g6123
tp6128
aa(lp6129
(VYour
S'PRP$'
tp6130
a(Vlife
S'NN'
tp6131
a(Vwill
S'MD'
tp6132
a(Vbe
S'VB'
tp6133
a(Vbrighter
S'NN'
tp6134
aa(lp6135
(VYour
S'PRP$'
tp6136
a(Vdays
S'NNS'
tp6137
a(Vwill
S'MD'
tp6138
a(Vbe
S'VB'
tp6139
a(Vlonger
S'JJR'
tp6140
aa(lp6141
(VBut
S'CC'
tp6142
a(Vcome
S'VB'
tp6143
a(Von
S'IN'
tp6144
a(V,
S','
tp6145
a(Vyou
S'PRP'
tp6146
a(Vfeel
S'VBP'
tp6147
a(Vit
S'PRP'
tp6148
aa(lp6149
(VOf
S'IN'
tp6150
a(Vflesh
S'JJ'
tp6151
a(Vand
S'CC'
tp6152
a(Vblood
S'NN'
tp6153
a(V,
S','
tp6154
a(Vgive
S'VB'
p6155
tp6156
a(Vit
S'PRP'
tp6157
a(Vup
S'RP'
tp6158
a(V,
S','
tp6159
a(Vgo
g6155
tp6160
aa(lp6161
(VIt
S'PRP'
tp6162
a(V's
S'VBZ'
tp6163
a(Vonly
S'RB'
tp6164
a(Villusion
S'NN'
tp6165
aa(lp6166
(VA
S'DT'
tp6167
a(Vmiracle
S'NN'
p6168
tp6169
a(Vdarling
g6168
tp6170
aa(lp6171
(VGive
S'VB'
tp6172
a(Vit
S'PRP'
tp6173
a(Vto
S'TO'
tp6174
a(Vthe
S'DT'
tp6175
a(Vknowing
S'NN'
tp6176
aa(lp6177
(VOf
S'IN'
tp6178
a(Vflesh
S'JJ'
tp6179
a(Vand
S'CC'
tp6180
a(Vblood
S'NN'
tp6181
a(V,
S','
tp6182
a(Vgive
S'VB'
p6183
tp6184
a(Vit
S'PRP'
tp6185
a(Vup
S'RP'
tp6186
a(V,
S','
tp6187
a(Vgo
g6183
tp6188
aa(lp6189
(VTruth
S'NN'
tp6190
a(V,
S','
tp6191
a(Vit
S'PRP'
tp6192
a(V's
S'VBZ'
tp6193
a(Vjust
S'RB'
tp6194
a(Vas
S'IN'
tp6195
a(Vreal
S'JJ'
tp6196
aa(lp6197
(VAs
S'IN'
tp6198
a(Vyour
S'PRP$'
tp6199
a(Vdream
S'NN'
tp6200
a(Vat
S'IN'
tp6201
a(Vnight
S'NN'
tp6202
aa(lp6203
(VSo
S'RB'
p6204
tp6205
a(Vfar
S'RB'
tp6206
a(Vaway
g6204
tp6207
aa(lp6208
(VIt
S'PRP'
tp6209
a(V's
S'VBZ'
tp6210
a(Vall
S'DT'
tp6211
a(Varound
S'IN'
tp6212
aa(lp6213
(VForget
S'NNP'
tp6214
a(Vyourself
S'PRP'
tp6215
aa(lp6216
(VCast
S'VB'
tp6217
a(Va
S'DT'
tp6218
a(Vsacred
S'JJ'
tp6219
a(Vgrain
S'NN'
tp6220
aa(lp6221
(VWe
S'PRP'
tp6222
a(Vstart
S'VBP'
tp6223
a(Vtoday
S'NN'
tp6224
aa(lp6225
(VOpen
S'VB'
p6226
tp6227
a(Vup
S'RP'
p6228
tp6229
a(V,
S','
tp6230
a(Vgive
g6226
tp6231
a(Vit
S'PRP'
tp6232
a(Vup
g6228
tp6233
a(V,
S','
tp6234
a(Vgo
g6226
tp6235
aa(lp6236
(VYour
S'PRP$'
tp6237
a(Vlife
S'NN'
tp6238
a(Vwill
S'MD'
tp6239
a(Vbe
S'VB'
tp6240
a(Vbrighter
S'NN'
tp6241
aa(lp6242
(VYour
S'PRP$'
tp6243
a(Vdays
S'NNS'
tp6244
a(Vwill
S'MD'
tp6245
a(Vbe
S'VB'
tp6246
a(Vlonger
S'JJR'
tp6247
aa(lp6248
(VBut
S'CC'
tp6249
a(Vcome
S'VB'
tp6250
a(Von
S'IN'
tp6251
a(V,
S','
tp6252
a(Vyou
S'PRP'
tp6253
a(Vfeel
S'VBP'
tp6254
a(Vit
S'PRP'
tp6255
aa(lp6256
(VOf
S'IN'
tp6257
a(Vflesh
S'JJ'
tp6258
a(Vand
S'CC'
tp6259
a(Vblood
S'NN'
tp6260
a(V,
S','
tp6261
a(Vgive
S'VB'
p6262
tp6263
a(Vit
S'PRP'
tp6264
a(Vup
S'RP'
tp6265
a(V,
S','
tp6266
a(Vgo
g6262
tp6267
aa(lp6268
(VIt
S'PRP'
tp6269
a(V's
S'VBZ'
tp6270
a(Vonly
S'RB'
tp6271
a(Villusion
S'NN'
tp6272
aa(lp6273
(VA
S'DT'
tp6274
a(Vmiracle
S'NN'
p6275
tp6276
a(Vdarling
g6275
tp6277
aa(lp6278
(VGive
S'VB'
tp6279
a(Vit
S'PRP'
tp6280
a(Vto
S'TO'
tp6281
a(Vthe
S'DT'
tp6282
a(Vknowing
S'NN'
tp6283
aa(lp6284
(VOf
S'IN'
tp6285
a(Vflesh
S'JJ'
tp6286
a(Vand
S'CC'
tp6287
a(Vblood
S'NN'
tp6288
a(V,
S','
tp6289
a(Vgive
S'VB'
p6290
tp6291
a(Vit
S'PRP'
tp6292
a(Vup
S'RP'
tp6293
a(V,
S','
tp6294
a(Vgo
g6290
tp6295
aa(lp6296
(VYour
S'PRP$'
tp6297
a(Vlife
S'NN'
tp6298
a(Vwill
S'MD'
tp6299
a(Vbe
S'VB'
tp6300
a(Vbrighter
S'NN'
tp6301
aa(lp6302
(VYour
S'PRP$'
tp6303
a(Vdays
S'NNS'
tp6304
a(Vwill
S'MD'
tp6305
a(Vbe
S'VB'
tp6306
a(Vlonger
S'JJR'
tp6307
aa(lp6308
(VBut
S'CC'
tp6309
a(Vcome
S'VB'
tp6310
a(Von
S'IN'
tp6311
a(V,
S','
tp6312
a(Vyou
S'PRP'
tp6313
a(Vfeel
S'VBP'
tp6314
a(Vit
S'PRP'
tp6315
aa(lp6316
(VOf
S'IN'
tp6317
a(Vflesh
S'JJ'
tp6318
a(Vand
S'CC'
tp6319
a(Vblood
S'NN'
tp6320
a(V,
S','
tp6321
a(Vgive
S'VB'
p6322
tp6323
a(Vit
S'PRP'
tp6324
a(Vup
S'RP'
tp6325
a(V,
S','
tp6326
a(Vgo
g6322
tp6327
aa(lp6328
(VIt
S'PRP'
tp6329
a(V's
S'VBZ'
tp6330
a(Vonly
S'RB'
tp6331
a(Villusion
S'NN'
tp6332
aa(lp6333
(VA
S'DT'
tp6334
a(Vmiracle
S'NN'
p6335
tp6336
a(Vdarling
g6335
tp6337
aa(lp6338
(VGive
S'VB'
tp6339
a(Vit
S'PRP'
tp6340
a(Vto
S'TO'
tp6341
a(Vthe
S'DT'
tp6342
a(Vknowing
S'NN'
tp6343
aa(lp6344
(VOf
S'IN'
tp6345
a(Vflesh
S'JJ'
tp6346
a(Vand
S'CC'
tp6347
a(Vblood
S'NN'
tp6348
a(V,
S','
tp6349
a(Vgive
S'VB'
p6350
tp6351
a(Vit
S'PRP'
tp6352
a(Vup
S'RP'
tp6353
a(V,
S','
tp6354
a(Vgo
g6350
tp6355
aasVDown Side of Me
p6356
(lp6357
(lp6358
(VMaybe
S'RB'
tp6359
a(VI
S'PRP'
tp6360
aa(lp6361
(VTell
S'NNP'
tp6362
a(Vyou
S'PRP'
tp6363
a(Vthat
S'IN'
tp6364
a(Vit
S'PRP'
tp6365
a(V's
S'VBZ'
tp6366
a(Vno
S'DT'
tp6367
a(Vbig
S'JJ'
tp6368
a(Vdeal
S'NN'
tp6369
aa(lp6370
(VMaybe
S'RB'
tp6371
a(VI
S'PRP'
tp6372
a(Vcan
S'MD'
tp6373
a(Vaim
S'VB'
tp6374
a(Vthis
S'DT'
tp6375
a(Vhigh
S'JJ'
tp6376
aa(lp6377
(VOr
S'CC'
tp6378
a(Vmaybe
S'RB'
tp6379
a(VI
S'PRP'
tp6380
a(Vcould
S'MD'
tp6381
a(Veat
S'VB'
tp6382
a(Vmy
S'PRP$'
tp6383
a(Vwords
S'NNS'
tp6384
aa(lp6385
(VYou
S'PRP'
tp6386
a(V're
S'VBP'
p6387
tp6388
a(Vnot
S'RB'
p6389
tp6390
a(Vsame
S'JJ'
p6391
tp6392
a(V,
S','
tp6393
a(Vnot
g6389
tp6394
a(Vthe
S'DT'
p6395
tp6396
a(Vsame
g6391
tp6397
a(V,
S','
tp6398
a(Vyou
S'PRP'
tp6399
a(V're
g6387
tp6400
a(Vnot
g6389
tp6401
a(Vthe
g6395
tp6402
a(Vsame
g6391
tp6403
aa(lp6404
(VNot
S'RB'
tp6405
a(Vthe
S'DT'
p6406
tp6407
a(Vsame
S'JJ'
p6408
tp6409
a(V,
S','
tp6410
a(Vyou
S'PRP'
tp6411
a(V're
S'VBP'
tp6412
a(Vnot
S'RB'
p6413
tp6414
a(Vthe
g6406
tp6415
a(Vsame
g6408
tp6416
a(V,
S','
tp6417
a(Vnot
g6413
tp6418
a(Vthe
g6406
tp6419
a(Vsame
g6408
tp6420
aa(lp6421
(VYou
S'PRP'
tp6422
a(V're
S'VBP'
tp6423
a(Vnot
S'RB'
p6424
tp6425
a(Vsame
S'JJ'
p6426
tp6427
a(V,
S','
tp6428
a(Vnot
g6424
tp6429
a(Vthe
S'DT'
tp6430
a(Vsame
g6426
tp6431
aa(lp6432
(VI
S'PRP'
p6433
tp6434
a(Vbelieve
S'VBP'
p6435
tp6436
a(V,
S','
tp6437
a(VI
g6433
tp6438
a(Vbelieve
g6435
tp6439
aa(lp6440
(VAnd
S'CC'
tp6441
a(Vtell
S'VB'
p6442
tp6443
a(Vmyself
S'PRP'
tp6444
a(Vto
S'TO'
tp6445
a(Vthink
g6442
tp6446
a(Vforward
S'RB'
tp6447
aa(lp6448
(VI
S'PRP'
p6449
tp6450
a(Vwill
S'MD'
tp6451
a(Vshow
S'VB'
tp6452
a(VI
g6449
tp6453
a(Vbelieve
S'VBP'
tp6454
aa(lp6455
(VAnd
S'CC'
tp6456
a(Vhold
S'VB'
p6457
tp6458
a(Vyou
S'PRP'
p6459
tp6460
a(Vup
S'RP'
tp6461
a(Vand
S'CC'
tp6462
a(Vknow
g6457
tp6463
a(Vthat
S'IN'
tp6464
a(Vyou
g6459
tp6465
a(V're
S'VBP'
tp6466
a(Vall
S'DT'
tp6467
a(VI
S'PRP'
tp6468
a(Vsee
S'VBP'
tp6469
a(Vin
S'IN'
tp6470
a(Vthe
S'DT'
tp6471
a(Vlight
S'NN'
tp6472
aa(lp6473
(VAnd
S'CC'
tp6474
a(Vnever
S'RB'
tp6475
a(Vdo
S'VBP'
tp6476
a(Vwhat
S'WP'
tp6477
a(VI
S'PRP'
tp6478
a(Vused
S'VBD'
tp6479
a(Vto
S'TO'
tp6480
aa(lp6481
(VMaybe
S'RB'
tp6482
a(Vyou
S'PRP'
tp6483
aa(lp6484
(VCould
S'NNP'
tp6485
a(Vtell
S'VB'
tp6486
a(V'em
S'PRP'
tp6487
a(Vthat
S'IN'
tp6488
a(Vyou
S'PRP'
tp6489
a(Vstayed
S'VBP'
tp6490
a(Vthe
S'DT'
tp6491
a(Vcourse
S'NN'
tp6492
aa(lp6493
(VMaybe
S'RB'
tp6494
a(VI
S'PRP'
tp6495
a(Vcould
S'MD'
tp6496
a(Vtear
S'VB'
tp6497
a(Vmy
S'PRP$'
tp6498
a(Vview
S'NN'
tp6499
aa(lp6500
(VOr
S'CC'
tp6501
a(Vmaybe
S'RB'
tp6502
a(VI
S'PRP'
tp6503
a(Vshould
S'MD'
tp6504
a(Veat
S'VB'
tp6505
a(Vmy
S'PRP$'
tp6506
a(Vwords
S'NNS'
tp6507
aa(lp6508
(VYou
S'PRP'
tp6509
a(V're
S'VBP'
p6510
tp6511
a(Vnot
S'RB'
p6512
tp6513
a(Vsame
S'JJ'
p6514
tp6515
a(V,
S','
tp6516
a(Vnot
g6512
tp6517
a(Vthe
S'DT'
p6518
tp6519
a(Vsame
g6514
tp6520
a(V,
S','
tp6521
a(Vyou
S'PRP'
tp6522
a(V're
g6510
tp6523
a(Vnot
g6512
tp6524
a(Vthe
g6518
tp6525
a(Vsame
g6514
tp6526
aa(lp6527
(VNot
S'RB'
tp6528
a(Vthe
S'DT'
p6529
tp6530
a(Vsame
S'JJ'
p6531
tp6532
a(V,
S','
tp6533
a(Vyou
S'PRP'
tp6534
a(V're
S'VBP'
tp6535
a(Vnot
S'RB'
p6536
tp6537
a(Vthe
g6529
tp6538
a(Vsame
g6531
tp6539
a(V,
S','
tp6540
a(Vnot
g6536
tp6541
a(Vthe
g6529
tp6542
a(Vsame
g6531
tp6543
aa(lp6544
(VYou
S'PRP'
tp6545
a(V're
S'VBP'
tp6546
a(Vnot
S'RB'
p6547
tp6548
a(Vsame
S'JJ'
p6549
tp6550
a(V,
S','
tp6551
a(Vnot
g6547
tp6552
a(Vthe
S'DT'
tp6553
a(Vsame
g6549
tp6554
aa(lp6555
(VI
S'PRP'
p6556
tp6557
a(Vbelieve
S'VBP'
p6558
tp6559
a(V,
S','
tp6560
a(VI
g6556
tp6561
a(Vbelieve
g6558
tp6562
aa(lp6563
(VAnd
S'CC'
tp6564
a(Vtell
S'VB'
p6565
tp6566
a(Vmyself
S'PRP'
tp6567
a(Vto
S'TO'
tp6568
a(Vthink
g6565
tp6569
a(Vforward
S'RB'
tp6570
aa(lp6571
(VI
S'PRP'
p6572
tp6573
a(Vwill
S'MD'
tp6574
a(Vshow
S'VB'
tp6575
a(VI
g6572
tp6576
a(Vbelieve
S'VBP'
tp6577
aa(lp6578
(VAnd
S'CC'
tp6579
a(Vhold
S'VB'
p6580
tp6581
a(Vyou
S'PRP'
p6582
tp6583
a(Vup
S'RP'
tp6584
a(Vand
S'CC'
tp6585
a(Vknow
g6580
tp6586
a(Vthat
S'IN'
tp6587
a(Vyou
g6582
tp6588
a(V're
S'VBP'
tp6589
a(Vall
S'DT'
tp6590
a(VI
S'PRP'
tp6591
a(Vsee
S'VBP'
tp6592
a(Vin
S'IN'
tp6593
a(Vthe
S'DT'
tp6594
a(Vlight
S'NN'
tp6595
aa(lp6596
(VAnd
S'CC'
tp6597
a(Vnever
S'RB'
tp6598
a(Vdo
S'VBP'
tp6599
a(Vwhat
S'WP'
tp6600
a(VI
S'PRP'
tp6601
a(Vused
S'VBD'
tp6602
a(Vto
S'TO'
tp6603
aa(lp6604
(VAnd
S'CC'
tp6605
a(Vnever
S'RB'
tp6606
a(Vdo
S'VBP'
tp6607
a(Vwhat
S'WP'
tp6608
a(VI
S'PRP'
tp6609
a(Vused
S'VBD'
tp6610
a(Vto
S'TO'
tp6611
aa(lp6612
(VKeep
S'VB'
tp6613
a(Vyou
S'PRP'
tp6614
a(Vaway
S'RB'
tp6615
a(Vfrom
S'IN'
tp6616
a(Vthe
S'DT'
tp6617
a(Vdown
S'JJ'
tp6618
a(Vside
S'NN'
tp6619
a(Vof
S'IN'
tp6620
a(Vme
S'PRP'
tp6621
aa(lp6622
(VYou
S'PRP'
tp6623
a(Vcan
S'MD'
tp6624
a(Vkeep
S'VB'
tp6625
a(Vme
S'PRP'
tp6626
a(Va
S'DT'
tp6627
a(Vdrip
S'NN'
p6628
tp6629
a(Vof
S'IN'
tp6630
a(Vthe
S'DT'
tp6631
a(Vlight
g6628
tp6632
a(Vthat
S'WDT'
tp6633
a(Vyou
S'PRP'
tp6634
a(Vsee
S'VBP'
tp6635
aa(lp6636
(VI
S'PRP'
tp6637
a(Vbelieve
S'VBP'
tp6638
a(Vthat
S'IN'
p6639
tp6640
a(Vyou
S'PRP'
p6641
tp6642
a(V're
S'VBP'
tp6643
a(Vall
S'PDT'
tp6644
a(Vthat
g6639
tp6645
a(Vyou
g6641
tp6646
a(Vsaid
S'VBD'
tp6647
a(Vyou
g6641
tp6648
a(Vwould
S'MD'
tp6649
a(Vbe
S'VB'
tp6650
aa(lp6651
(VIf
S'IN'
tp6652
a(VI
S'PRP'
tp6653
a(Vkeep
S'VBP'
tp6654
a(Vyou
S'PRP'
tp6655
a(Vaway
S'RB'
tp6656
a(Vfrom
S'IN'
tp6657
a(Vthe
S'DT'
tp6658
a(Vdown
S'JJ'
tp6659
a(Vside
S'NN'
tp6660
a(Vof
S'IN'
tp6661
a(Vme
S'PRP'
tp6662
aa(lp6663
(V(
S'('
tp6664
a(VOnly
S'RB'
tp6665
a(Vif
S'IN'
tp6666
a(Vyou
S'PRP'
tp6667
a(Vcould
S'MD'
tp6668
a(Vsee
S'VB'
tp6669
a(V)
S')'
tp6670
aa(lp6671
(VYou
S'PRP'
tp6672
a(Vcan
S'MD'
tp6673
a(Vkeep
S'VB'
tp6674
a(Vme
S'PRP'
tp6675
a(Va
S'DT'
tp6676
a(Vdrip
S'NN'
p6677
tp6678
a(Vof
S'IN'
tp6679
a(Vthe
S'DT'
tp6680
a(Vlight
g6677
tp6681
a(Vthat
S'WDT'
tp6682
a(Vyou
S'PRP'
tp6683
a(Vsee
S'VBP'
tp6684
aa(lp6685
(V(
S'('
tp6686
a(VOnly
S'RB'
tp6687
a(Vif
S'IN'
tp6688
a(VI
S'PRP'
tp6689
a(Vcould
S'MD'
tp6690
a(Vsee
S'VB'
tp6691
a(V)
S')'
tp6692
aa(lp6693
(VI
S'PRP'
tp6694
a(Vbelieve
S'VBP'
tp6695
a(Vthat
S'IN'
p6696
tp6697
a(Vyou
S'PRP'
p6698
tp6699
a(V're
S'VBP'
tp6700
a(Vall
S'PDT'
tp6701
a(Vthat
g6696
tp6702
a(Vyou
g6698
tp6703
a(Vsaid
S'VBD'
tp6704
a(Vyou
g6698
tp6705
a(Vwould
S'MD'
tp6706
a(Vbe
S'VB'
tp6707
aa(lp6708
(V(
S'('
tp6709
a(VOnly
S'RB'
tp6710
a(Vif
S'IN'
tp6711
a(Vyou
S'PRP'
tp6712
a(Vcould
S'MD'
tp6713
a(Vsee
S'VB'
tp6714
a(V)
S')'
tp6715
aa(lp6716
(VIf
S'IN'
tp6717
a(VI
S'PRP'
tp6718
a(Vkeep
S'VBP'
tp6719
a(Vyou
S'PRP'
tp6720
a(Vaway
S'RB'
tp6721
a(Vfrom
S'IN'
tp6722
a(Vthe
S'DT'
tp6723
a(Vdown
S'JJ'
tp6724
a(Vside
S'NN'
tp6725
a(Vof
S'IN'
tp6726
a(Vme
S'PRP'
tp6727
aa(lp6728
(V(
S'('
tp6729
a(VOnly
S'RB'
tp6730
a(Vif
S'IN'
tp6731
a(VI
S'PRP'
tp6732
a(Vcould
S'MD'
tp6733
a(Vsee
S'VB'
tp6734
a(V)
S')'
tp6735
aa(lp6736
(VYou
S'PRP'
tp6737
a(Vcan
S'MD'
tp6738
a(Vkeep
S'VB'
tp6739
a(Vme
S'PRP'
tp6740
a(Va
S'DT'
tp6741
a(Vdrip
S'NN'
p6742
tp6743
a(Vof
S'IN'
tp6744
a(Vthe
S'DT'
tp6745
a(Vlight
g6742
tp6746
a(Vthat
S'WDT'
tp6747
a(Vyou
S'PRP'
tp6748
a(Vsee
S'VBP'
tp6749
aa(lp6750
(V(
S'('
tp6751
a(VOnly
S'RB'
tp6752
a(Vif
S'IN'
tp6753
a(VI
S'PRP'
tp6754
a(Vcould
S'MD'
tp6755
a(Vsee
S'VB'
tp6756
a(V)
S')'
tp6757
aa(lp6758
(VI
S'PRP'
tp6759
a(Vbelieve
S'VBP'
tp6760
a(Vthat
S'IN'
p6761
tp6762
a(Vyou
S'PRP'
p6763
tp6764
a(V're
S'VBP'
tp6765
a(Vall
S'PDT'
tp6766
a(Vthat
g6761
tp6767
a(Vyou
g6763
tp6768
a(Vsaid
S'VBD'
tp6769
a(Vyou
g6763
tp6770
a(Vwould
S'MD'
tp6771
a(Vbe
S'VB'
tp6772
aa(lp6773
(V(
S'('
tp6774
a(VOnly
S'RB'
tp6775
a(Vif
S'IN'
tp6776
a(VI
S'PRP'
tp6777
a(Vcould
S'MD'
tp6778
a(Vsee
S'VB'
tp6779
a(V)
S')'
tp6780
aa(lp6781
(VIf
S'IN'
tp6782
a(VI
S'PRP'
tp6783
a(Vkeep
S'VBP'
tp6784
a(Vyou
S'PRP'
tp6785
a(Vaway
S'RB'
tp6786
a(Vfrom
S'IN'
tp6787
a(Vthe
S'DT'
tp6788
a(Vdown
S'JJ'
tp6789
a(Vside
S'NN'
tp6790
a(Vof
S'IN'
tp6791
a(Vme
S'PRP'
tp6792
aa(lp6793
(V(
S'('
tp6794
a(VOnly
S'RB'
tp6795
a(Vif
S'IN'
tp6796
a(VI
S'PRP'
tp6797
a(Vcould
S'MD'
tp6798
a(Vsee
S'VB'
tp6799
a(V)
S')'
tp6800
aa(lp6801
(VYou
S'PRP'
tp6802
a(Vcan
S'MD'
tp6803
a(Vkeep
S'VB'
tp6804
a(Vme
S'PRP'
tp6805
a(Va
S'DT'
tp6806
a(Vdrip
S'NN'
p6807
tp6808
a(Vof
S'IN'
tp6809
a(Vthe
S'DT'
tp6810
a(Vlight
g6807
tp6811
a(Vthat
S'WDT'
tp6812
a(Vyou
S'PRP'
tp6813
a(Vsee
S'VBP'
tp6814
aa(lp6815
(V(
S'('
tp6816
a(VOnly
S'RB'
tp6817
a(Vif
S'IN'
tp6818
a(VI
S'PRP'
tp6819
a(Vcould
S'MD'
tp6820
a(Vsee
S'VB'
tp6821
a(V)
S')'
tp6822
aa(lp6823
(VI
S'PRP'
tp6824
a(Vbelieve
S'VBP'
tp6825
a(Vthat
S'IN'
p6826
tp6827
a(Vyou
S'PRP'
p6828
tp6829
a(V're
S'VBP'
tp6830
a(Vall
S'PDT'
tp6831
a(Vthat
g6826
tp6832
a(Vyou
g6828
tp6833
a(Vsaid
S'VBD'
tp6834
a(Vyou
g6828
tp6835
a(Vwould
S'MD'
tp6836
a(Vbe
S'VB'
tp6837
aa(lp6838
(V(
S'('
tp6839
a(VOnly
S'RB'
tp6840
a(Vif
S'IN'
tp6841
a(VI
S'PRP'
tp6842
a(Vcould
S'MD'
tp6843
a(Vsee
S'VB'
tp6844
a(V)
S')'
tp6845
aa(lp6846
(VYou
S'PRP'
tp6847
a(Vcan
S'MD'
tp6848
a(Vwrap
S'VB'
p6849
tp6850
a(Vup
S'RP'
tp6851
a(Vyour
S'PRP$'
tp6852
a(Vhopes
S'NNS'
tp6853
a(Vand
S'CC'
tp6854
a(Vrelease
g6849
tp6855
a(Vthem
S'PRP'
tp6856
a(Vto
S'TO'
tp6857
a(Vme
S'PRP'
tp6858
aa(lp6859
(V(
S'('
tp6860
a(VOnly
S'RB'
tp6861
a(Vif
S'IN'
tp6862
a(VI
S'PRP'
tp6863
a(Vcould
S'MD'
tp6864
a(Vsee
S'VB'
tp6865
a(V)
S')'
tp6866
aa(lp6867
(VYou
S'PRP'
tp6868
a(Vcan
S'MD'
tp6869
a(Vkeep
S'VB'
tp6870
a(Vme
S'PRP'
tp6871
a(Va
S'DT'
tp6872
a(Vdrip
S'NN'
p6873
tp6874
a(Vof
S'IN'
tp6875
a(Vthe
S'DT'
tp6876
a(Vlight
g6873
tp6877
a(Vthat
S'WDT'
tp6878
a(Vyou
S'PRP'
tp6879
a(Vsee
S'VBP'
tp6880
aa(lp6881
(V(
S'('
tp6882
a(VOnly
S'RB'
tp6883
a(Vif
S'IN'
tp6884
a(VI
S'PRP'
tp6885
a(Vcould
S'MD'
tp6886
a(Vsee
S'VB'
tp6887
a(V)
S')'
tp6888
aa(lp6889
(VI
S'PRP'
tp6890
a(Vbelieve
S'VBP'
tp6891
a(Vthat
S'IN'
p6892
tp6893
a(Vyou
S'PRP'
p6894
tp6895
a(V're
S'VBP'
tp6896
a(Vall
S'PDT'
tp6897
a(Vthat
g6892
tp6898
a(Vyou
g6894
tp6899
a(Vsaid
S'VBD'
tp6900
a(Vyou
g6894
tp6901
a(Vwould
S'MD'
tp6902
a(Vbe
S'VB'
tp6903
aa(lp6904
(V(
S'('
tp6905
a(VOnly
S'RB'
tp6906
a(Vif
S'IN'
tp6907
a(VI
S'PRP'
tp6908
a(Vcould
S'MD'
tp6909
a(Vsee
S'VB'
tp6910
a(V)
S')'
tp6911
aa(lp6912
(VYou
S'PRP'
tp6913
a(Vwould
S'MD'
tp6914
a(Vbe
S'VB'
tp6915
aa(lp6916
(VYou
S'PRP'
tp6917
a(Vwould
S'MD'
tp6918
a(Vbe
S'VB'
tp6919
aa(lp6920
(VYou
S'PRP'
tp6921
a(Vwould
S'MD'
tp6922
a(Vbe
S'VB'
tp6923
aa(lp6924
(VI
S'PRP'
p6925
tp6926
a(Vbelieve
S'VBP'
p6927
tp6928
a(V,
S','
tp6929
a(VI
g6925
tp6930
a(Vbelieve
g6927
tp6931
aa(lp6932
(VAnd
S'CC'
tp6933
a(Vtell
S'VB'
p6934
tp6935
a(Vmyself
S'PRP'
tp6936
a(Vto
S'TO'
tp6937
a(Vthink
g6934
tp6938
a(Vforward
S'RB'
tp6939
aa(lp6940
(VI
S'PRP'
p6941
tp6942
a(Vwill
S'MD'
tp6943
a(Vshow
S'VB'
tp6944
a(VI
g6941
tp6945
a(Vbelieve
S'VBP'
tp6946
aa(lp6947
(VAnd
S'CC'
tp6948
a(Vhold
S'VB'
p6949
tp6950
a(Vyou
S'PRP'
p6951
tp6952
a(Vup
S'RP'
tp6953
a(Vand
S'CC'
tp6954
a(Vknow
g6949
tp6955
a(Vthat
S'IN'
tp6956
a(Vyou
g6951
tp6957
a(V're
S'VBP'
tp6958
a(Vall
S'DT'
tp6959
a(VI
S'PRP'
tp6960
a(Vsee
S'VBP'
tp6961
a(Vin
S'IN'
tp6962
a(Vthe
S'DT'
tp6963
a(Vlight
S'NN'
tp6964
aa(lp6965
(VAll
S'DT'
tp6966
a(VI
S'PRP'
tp6967
a(Vsee
S'VBP'
tp6968
aa(lp6969
(VI
S'PRP'
p6970
tp6971
a(Vbelieve
S'VBP'
p6972
tp6973
a(V,
S','
tp6974
a(VI
g6970
tp6975
a(Vbelieve
g6972
tp6976
aa(lp6977
(VAnd
S'CC'
tp6978
a(Vtell
S'VB'
p6979
tp6980
a(Vmyself
S'PRP'
tp6981
a(Vto
S'TO'
tp6982
a(Vthink
g6979
tp6983
a(Vforward
S'RB'
tp6984
aa(lp6985
(VI
S'PRP'
p6986
tp6987
a(Vwill
S'MD'
tp6988
a(Vshow
S'VB'
tp6989
a(VI
g6986
tp6990
a(Vbelieve
S'VBP'
tp6991
aa(lp6992
(VAnd
S'CC'
tp6993
a(VI
S'PRP'
p6994
tp6995
a(Vhold
S'VBP'
p6996
tp6997
a(Vyou
S'PRP'
p6998
tp6999
a(Vup
S'IN'
p7000
tp7001
a(Vand
S'CC'
tp7002
a(Vknow
S'VB'
tp7003
a(Vthat
g7000
tp7004
a(Vyou
g6998
tp7005
a(V're
S'VBP'
tp7006
a(Vall
S'DT'
tp7007
a(VI
g6994
tp7008
a(Vsee
g6996
tp7009
a(Vin
S'IN'
tp7010
a(Vthe
S'DT'
tp7011
a(Vlight
S'NN'
tp7012
aa(lp7013
(VAnd
S'CC'
tp7014
a(Vnever
S'RB'
tp7015
a(Vdo
S'VBP'
tp7016
a(Vwhat
S'WP'
tp7017
a(VI
S'PRP'
tp7018
a(Vused
S'VBD'
tp7019
a(Vto
S'TO'
tp7020
aa(lp7021
(VAnd
S'CC'
tp7022
a(Vnever
S'RB'
tp7023
a(Vdo
S'VBP'
tp7024
a(Vwhat
S'WP'
tp7025
a(VI
S'PRP'
tp7026
a(Vused
S'VBD'
tp7027
a(Vto
S'TO'
tp7028
aasVBroken Bones (Bonus Track)
p7029
(lp7030
(lp7031
(VCatch
S'VB'
p7032
tp7033
a(Vthem
S'PRP'
p7034
tp7035
a(Vand
S'CC'
tp7036
a(Vkill
g7032
tp7037
a(Vthem
g7034
tp7038
aa(lp7039
(VYou\u2019re
S'NNP'
tp7040
a(Vonly
S'RB'
tp7041
a(Vhope
S'VBP'
tp7042
a(Vis
S'VBZ'
tp7043
a(Vevil
S'JJ'
tp7044
aa(lp7045
(VI
S'PRP'
p7046
tp7047
a(Vwill
S'MD'
p7048
tp7049
a(Vnot
S'RB'
tp7050
a(Vdie
S'VB'
p7051
tp7052
a(V,
S','
tp7053
a(VI
g7046
tp7054
a(Vwill
g7048
tp7055
a(Vkeep
g7051
tp7056
a(Vquiet
S'JJ'
tp7057
aa(lp7058
(VI
S'PRP'
tp7059
a(Vwill
S'MD'
tp7060
a(Vhold
S'VB'
tp7061
a(Vyou
S'PRP'
tp7062
a(Vhigh
S'JJ'
tp7063
a(Vabove
S'IN'
tp7064
aa(lp7065
(VYou\u2019re
S'NN'
tp7066
a(Von
S'IN'
tp7067
a(Vyour
S'PRP$'
tp7068
a(Vown
S'JJ'
tp7069
aa(lp7070
(VWait
S'NNP'
tp7071
a(Vtill
S'NN'
p7072
tp7073
a(Vdawn
g7072
tp7074
a(Vand
S'CC'
tp7075
a(Vthen
S'RB'
tp7076
a(Vgo
S'VB'
tp7077
aa(lp7078
(VNo
S'DT'
tp7079
a(Vhelp
S'NN'
p7080
tp7081
a(Vhere
S'RB'
tp7082
a(Vfrom
S'IN'
tp7083
a(Vheaven
g7080
tp7084
aa(lp7085
(VYou\u2019re
S'RB'
p7086
tp7087
a(Vnot
S'RB'
tp7088
a(Vas
g7086
tp7089
a(Vreal
S'JJ'
tp7090
a(Vas
S'IN'
tp7091
a(VI
S'PRP'
tp7092
a(Vam
S'VBP'
tp7093
aa(lp7094
(VI
S'PRP'
tp7095
a(Vwill
S'MD'
tp7096
a(Vwake
S'VB'
tp7097
a(Vup
S'RP'
tp7098
a(Vthe
S'DT'
tp7099
a(Vdark
S'JJ'
tp7100
a(Veyes
S'NNS'
tp7101
aa(lp7102
(VUntil
S'IN'
tp7103
a(Vyour
S'PRP$'
tp7104
a(Vblood
S'NN'
tp7105
a(Vis
S'VBZ'
tp7106
a(Vout
S'RP'
tp7107
aa(lp7108
(VYou\u2019re
S'NN'
tp7109
a(Von
S'IN'
tp7110
a(Vyour
S'PRP$'
tp7111
a(Vown
S'JJ'
tp7112
aa(lp7113
(VI\u2019m
S'NNP'
tp7114
a(Vlying
S'NN'
tp7115
a(Vin
S'IN'
tp7116
a(Vhere
S'RB'
tp7117
aa(lp7118
(VInside
S'IN'
tp7119
a(Vyour
S'PRP$'
tp7120
a(Vsleep
S'NN'
tp7121
aa(lp7122
(VKeep
S'VB'
tp7123
a(Vyourself
S'PRP'
tp7124
aa(lp7125
(VAwake
S'NN'
tp7126
a(Vfor
S'IN'
tp7127
a(Vthis
S'DT'
tp7128
aa(lp7129
(VWait
S'NNP'
tp7130
a(Vtill
S'NN'
p7131
tp7132
a(Vdawn
g7131
tp7133
a(Vand
S'CC'
tp7134
a(Vthen
S'RB'
tp7135
a(Vgo
S'VB'
tp7136
aa(lp7137
(VOur
S'PRP$'
tp7138
a(Vlove
S'NN'
tp7139
a(Vwill
S'MD'
tp7140
a(Vnever
S'RB'
tp7141
a(Vdie
S'VB'
tp7142
aa(lp7143
(VBroken
S'NNP'
tp7144
a(Vbones
S'NNS'
p7145
tp7146
a(Vand
S'CC'
tp7147
a(Vpromises
g7145
tp7148
aa(lp7149
(VYou\u2019re
S'NNP'
tp7150
a(Vweakness
S'NN'
tp7151
a(Vis
S'VBZ'
tp7152
a(Vclear
S'JJ'
tp7153
a(Vnow
S'RB'
tp7154
aa(lp7155
(VI
S'PRP'
tp7156
a(Vsee
S'VBP'
tp7157
a(Vyou\u2019re
S'JJ'
tp7158
a(Vkind
S'NN'
tp7159
a(Veyes
S'NNS'
tp7160
aa(lp7161
(VYou\u2019re
S'NN'
tp7162
a(Von
S'IN'
tp7163
a(Vyour
S'PRP$'
tp7164
a(Vown
S'JJ'
tp7165
aa(lp7166
(VWait
S'NNP'
tp7167
a(Vtill
S'NN'
p7168
tp7169
a(Vdawn
g7168
tp7170
a(Vand
S'CC'
tp7171
a(Vthen
S'RB'
tp7172
a(Vgo
S'VB'
tp7173
aa(lp7174
(VYou
S'PRP'
tp7175
a(Vare
S'VBP'
tp7176
a(Vanother
S'DT'
tp7177
a(Vone
S'CD'
tp7178
aa(lp7179
(VBuried
S'VBN'
tp7180
a(Vhere
S'RB'
tp7181
a(Vby
S'IN'
tp7182
a(Vno
S'DT'
tp7183
a(Vone
S'NN'
tp7184
aa(lp7185
(VI
S'PRP'
tp7186
a(Vwill
S'MD'
tp7187
a(Vkeep
S'VB'
tp7188
a(Vyou
S'PRP'
tp7189
a(Vinside
S'IN'
tp7190
a(Vwith
S'IN'
tp7191
a(Vyour
S'PRP$'
tp7192
a(Vsoul
S'NN'
tp7193
a(Vlive
S'VBP'
tp7194
aa(lp7195
(VYou\u2019re
S'NN'
tp7196
a(Von
S'IN'
tp7197
a(Vyour
S'PRP$'
tp7198
a(Vown
S'JJ'
tp7199
aa(lp7200
(VKeep
S'VB'
tp7201
a(Vyour
S'PRP$'
p7202
tp7203
a(Vhead
S'NN'
tp7204
a(Vbeneath
S'IN'
tp7205
a(Vyour
g7202
tp7206
a(Vhands
S'NNS'
tp7207
aa(lp7208
(VPlay
S'VB'
tp7209
a(Vyour
S'PRP$'
tp7210
a(Vpart
S'NN'
tp7211
aa(lp7212
(VAll
S'DT'
tp7213
a(Von
S'IN'
tp7214
a(Vyour
S'PRP$'
tp7215
a(Vown
S'JJ'
tp7216
aa(lp7217
(VClosed
S'JJ'
tp7218
a(Vand
S'CC'
tp7219
a(Vbruised
S'VBD'
tp7220
aa(lp7221
(VYou\u2019re
S'NN'
tp7222
a(Von
S'IN'
tp7223
a(Vyour
S'PRP$'
tp7224
a(Vown
S'JJ'
tp7225
aasVRecover
p7226
(lp7227
(lp7228
(VCarved
S'VBN'
tp7229
a(Vout
S'RP'
tp7230
a(V,
S','
tp7231
a(Vcold
S'JJ'
tp7232
aa(lp7233
(VHiding
S'VBG'
tp7234
a(Vfrom
S'IN'
tp7235
a(Vyou
S'PRP'
tp7236
a(Vin
S'IN'
tp7237
a(Vthis
S'DT'
tp7238
a(Vskin
S'NN'
tp7239
a(V,
S','
tp7240
a(Vso
S'RB'
tp7241
a(Vold
S'JJ'
tp7242
aa(lp7243
(VI
S'PRP'
tp7244
a(V'll
S'MD'
tp7245
a(Vcome
S'VB'
tp7246
a(Vclean
S'JJ'
tp7247
aa(lp7248
(VEverywhere
S'RB'
tp7249
a(Veveryone
S'NN'
tp7250
a(Vknows
S'VBZ'
p7251
tp7252
a(Vit
S'PRP'
tp7253
a(V's
g7251
tp7254
a(Vme
S'PRP'
tp7255
aa(lp7256
(VAnd
S'CC'
tp7257
a(Vif
S'IN'
tp7258
a(VI
S'PRP'
tp7259
a(Vrecover
S'VBP'
tp7260
aa(lp7261
(VWill
S'MD'
tp7262
a(Vyou
S'PRP'
tp7263
a(Vbe
S'VB'
tp7264
a(Vmy
S'PRP$'
tp7265
a(Vcomfort
S'NN'
tp7266
aa(lp7267
(VOr
S'CC'
tp7268
a(Vit
S'PRP'
tp7269
a(Vcan
S'MD'
tp7270
a(Vbe
S'VB'
tp7271
a(Vover
S'IN'
tp7272
aa(lp7273
(VOr
S'CC'
tp7274
a(Vwe
S'PRP'
tp7275
a(Vcan
S'MD'
tp7276
a(Vjust
S'RB'
tp7277
a(Vleave
S'VB'
tp7278
a(Vit
S'PRP'
tp7279
a(Vhere
S'RB'
tp7280
aa(lp7281
(VSo
S'RB'
tp7282
a(Vpick
S'JJ'
tp7283
a(Vany
S'DT'
tp7284
a(Vnumber
S'NN'
tp7285
aa(lp7286
(VChoose
S'NNP'
tp7287
a(Vany
S'DT'
tp7288
a(Vcolor
S'NN'
tp7289
aa(lp7290
(VI
S'PRP'
tp7291
a(V've
S'VBP'
tp7292
a(Vgot
S'VBD'
tp7293
a(Vthe
S'DT'
tp7294
a(Vanswer
S'NN'
tp7295
aa(lp7296
(VOpen
S'VB'
tp7297
a(Vthe
S'DT'
tp7298
a(Venvelope
S'NN'
tp7299
aa(lp7300
(VI
S'PRP'
tp7301
a(V'll
S'MD'
tp7302
a(Vgive
S'VB'
tp7303
a(Vyou
S'PRP'
tp7304
a(Vone
S'CD'
tp7305
a(Vmore
S'JJR'
tp7306
a(Vchance
S'NN'
tp7307
aa(lp7308
(VTo
S'TO'
tp7309
a(Vsay
S'VB'
p7310
tp7311
a(Vwe
S'PRP'
tp7312
a(Vcan
S'MD'
tp7313
a(Vchange
g7310
tp7314
a(Vor
S'CC'
tp7315
a(Vpart
S'NN'
tp7316
a(Vways
S'NNS'
tp7317
aa(lp7318
(VAnd
S'CC'
tp7319
a(Vyou
S'PRP'
p7320
tp7321
a(Vtake
S'VBP'
p7322
tp7323
a(Vwhat
S'WP'
tp7324
a(Vyou
g7320
tp7325
a(Vneed
g7322
tp7326
aa(lp7327
(VAnd
S'CC'
tp7328
a(Vyou
S'PRP'
tp7329
a(Vdo
S'VBP'
tp7330
a(Vn't
S'RB'
tp7331
a(Vneed
S'VB'
tp7332
a(Vme
S'PRP'
tp7333
aa(lp7334
(VI
S'PRP'
tp7335
a(V'll
S'MD'
tp7336
a(Vgive
S'VB'
tp7337
a(Vyou
S'PRP'
tp7338
a(Vone
S'CD'
tp7339
a(Vmore
S'JJR'
tp7340
a(Vchance
S'NN'
tp7341
aa(lp7342
(VTo
S'TO'
tp7343
a(Vsay
S'VB'
p7344
tp7345
a(Vwe
S'PRP'
tp7346
a(Vcan
S'MD'
tp7347
a(Vchange
g7344
tp7348
a(Vour
S'PRP$'
tp7349
a(Vold
S'JJ'
tp7350
a(Vways
S'NNS'
tp7351
aa(lp7352
(VAnd
S'CC'
tp7353
a(Vyou
S'PRP'
p7354
tp7355
a(Vtake
S'VBP'
p7356
tp7357
a(Vwhat
S'WP'
tp7358
a(Vyou
g7354
tp7359
a(Vneed
g7356
tp7360
aa(lp7361
(VAnd
S'CC'
tp7362
a(Vyou
S'PRP'
p7363
tp7364
a(Vknow
S'VBP'
p7365
tp7366
a(Vyou
g7363
tp7367
a(Vdo
g7365
tp7368
a(Vn't
S'RB'
tp7369
a(Vneed
S'VB'
tp7370
a(Vme
S'PRP'
tp7371
aa(lp7372
(VBlow
S'NN'
p7373
tp7374
a(Vby
S'IN'
tp7375
a(Vblow
g7373
tp7376
aa(lp7377
(VHonest
S'NNP'
tp7378
a(Vin
S'IN'
tp7379
a(Vevery
S'DT'
tp7380
a(Vway
S'NN'
tp7381
a(VI
S'PRP'
tp7382
a(Vknow
S'VBP'
tp7383
aa(lp7384
(VYou
S'PRP'
tp7385
a(Vappear
S'VBP'
tp7386
aa(lp7387
(VTo
S'TO'
tp7388
a(Vface
S'VB'
tp7389
a(Va
S'DT'
tp7390
a(Vdecision
S'NN'
tp7391
a(VI
S'PRP'
tp7392
a(Vknow
S'VBP'
p7393
tp7394
a(Vyou
S'PRP'
tp7395
a(Vfear
g7393
tp7396
aa(lp7397
(VAnd
S'CC'
tp7398
a(Vif
S'IN'
tp7399
a(VI
S'PRP'
tp7400
a(Vrecover
S'VBP'
tp7401
aa(lp7402
(VWill
S'MD'
tp7403
a(Vyou
S'PRP'
tp7404
a(Vbe
S'VB'
tp7405
a(Vmy
S'PRP$'
tp7406
a(Vcomfort
S'NN'
tp7407
aa(lp7408
(VOr
S'CC'
tp7409
a(Vit
S'PRP'
tp7410
a(Vcan
S'MD'
tp7411
a(Vbe
S'VB'
tp7412
a(Vover
S'IN'
tp7413
aa(lp7414
(VOr
S'CC'
tp7415
a(Vwe
S'PRP'
tp7416
a(Vcan
S'MD'
tp7417
a(Vjust
S'RB'
tp7418
a(Vleave
S'VB'
tp7419
a(Vit
S'PRP'
tp7420
a(Vhere
S'RB'
tp7421
aa(lp7422
(VSo
S'RB'
tp7423
a(Vpick
S'JJ'
tp7424
a(Vany
S'DT'
tp7425
a(Vnumber
S'NN'
tp7426
aa(lp7427
(VChoose
S'NNP'
tp7428
a(Vany
S'DT'
tp7429
a(Vcolor
S'NN'
tp7430
aa(lp7431
(VI
S'PRP'
tp7432
a(V've
S'VBP'
tp7433
a(Vgot
S'VBD'
tp7434
a(Vthe
S'DT'
tp7435
a(Vanswer
S'NN'
tp7436
aa(lp7437
(VOpen
S'VB'
tp7438
a(Vthe
S'DT'
tp7439
a(Venvelope
S'NN'
tp7440
aa(lp7441
(VI
S'PRP'
tp7442
a(V'll
S'MD'
tp7443
a(Vgive
S'VB'
tp7444
a(Vyou
S'PRP'
tp7445
a(Vone
S'CD'
tp7446
a(Vmore
S'JJR'
tp7447
a(Vchance
S'NN'
tp7448
aa(lp7449
(VTo
S'TO'
tp7450
a(Vsay
S'VB'
p7451
tp7452
a(Vwe
S'PRP'
tp7453
a(Vcan
S'MD'
tp7454
a(Vchange
g7451
tp7455
a(Vor
S'CC'
tp7456
a(Vpart
S'NN'
tp7457
a(Vways
S'NNS'
tp7458
aa(lp7459
(VAnd
S'CC'
tp7460
a(Vyou
S'PRP'
p7461
tp7462
a(Vtake
S'VBP'
p7463
tp7464
a(Vwhat
S'WP'
tp7465
a(Vyou
g7461
tp7466
a(Vneed
g7463
tp7467
aa(lp7468
(VAnd
S'CC'
tp7469
a(Vyou
S'PRP'
tp7470
a(Vdo
S'VBP'
tp7471
a(Vn't
S'RB'
tp7472
a(Vneed
S'VB'
tp7473
a(Vme
S'PRP'
tp7474
aa(lp7475
(VI
S'PRP'
tp7476
a(V'll
S'MD'
tp7477
a(Vgive
S'VB'
tp7478
a(Vyou
S'PRP'
tp7479
a(Vone
S'CD'
tp7480
a(Vmore
S'JJR'
tp7481
a(Vchance
S'NN'
tp7482
aa(lp7483
(VTo
S'TO'
tp7484
a(Vsay
S'VB'
p7485
tp7486
a(Vwe
S'PRP'
tp7487
a(Vcan
S'MD'
tp7488
a(Vchange
g7485
tp7489
a(Vour
S'PRP$'
tp7490
a(Vold
S'JJ'
tp7491
a(Vways
S'NNS'
tp7492
aa(lp7493
(VAnd
S'CC'
tp7494
a(Vyou
S'PRP'
p7495
tp7496
a(Vtake
S'VBP'
p7497
tp7498
a(Vwhat
S'WP'
tp7499
a(Vyou
g7495
tp7500
a(Vneed
g7497
tp7501
aa(lp7502
(VAnd
S'CC'
tp7503
a(Vyou
S'PRP'
p7504
tp7505
a(Vknow
S'VBP'
p7506
tp7507
a(Vyou
g7504
tp7508
a(Vdo
g7506
tp7509
a(Vn't
S'RB'
tp7510
a(Vneed
S'VB'
tp7511
a(Vme
S'PRP'
tp7512
aa(lp7513
(VAnd
S'CC'
tp7514
a(Vyou
S'PRP'
p7515
tp7516
a(Vknow
S'VBP'
p7517
tp7518
a(Vyou
g7515
tp7519
a(Vdo
g7517
tp7520
a(Vn't
S'RB'
tp7521
a(Vneed
S'VB'
tp7522
a(Vme
S'PRP'
tp7523
aa(lp7524
(VAnd
S'CC'
tp7525
a(Vif
S'IN'
tp7526
a(VI
S'PRP'
tp7527
a(Vrecover
S'VBP'
tp7528
aa(lp7529
(VWill
S'MD'
tp7530
a(Vyou
S'PRP'
tp7531
a(Vbe
S'VB'
tp7532
a(Vmy
S'PRP$'
tp7533
a(Vcomfort
S'NN'
tp7534
aa(lp7535
(VOr
S'CC'
tp7536
a(Vit
S'PRP'
tp7537
a(Vcan
S'MD'
tp7538
a(Vbe
S'VB'
tp7539
a(Vover
S'IN'
tp7540
aa(lp7541
(VOr
S'CC'
tp7542
a(Vwe
S'PRP'
tp7543
a(Vcan
S'MD'
tp7544
a(Vjust
S'RB'
tp7545
a(Vleave
S'VB'
tp7546
a(Vit
S'PRP'
tp7547
a(Vhere
S'RB'
tp7548
aa(lp7549
(VSo
S'RB'
tp7550
a(Vpick
S'JJ'
tp7551
a(Vany
S'DT'
tp7552
a(Vnumber
S'NN'
tp7553
aa(lp7554
(VChoose
S'NNP'
tp7555
a(Vany
S'DT'
tp7556
a(Vcolor
S'NN'
tp7557
aa(lp7558
(VI
S'PRP'
tp7559
a(V've
S'VBP'
tp7560
a(Vgot
S'VBD'
tp7561
a(Vthe
S'DT'
tp7562
a(Vanswer
S'NN'
tp7563
aa(lp7564
(VOpen
S'VB'
tp7565
a(Vthe
S'DT'
tp7566
a(Venvelope
S'NN'
tp7567
aa(lp7568
(VI
S'PRP'
tp7569
a(V'll
S'MD'
tp7570
a(Vgive
S'VB'
tp7571
a(Vyou
S'PRP'
tp7572
a(Vone
S'CD'
tp7573
a(Vmore
S'JJR'
tp7574
a(Vchance
S'NN'
tp7575
aa(lp7576
(VTo
S'TO'
tp7577
a(Vsay
S'VB'
p7578
tp7579
a(Vwe
S'PRP'
tp7580
a(Vcan
S'MD'
tp7581
a(Vchange
g7578
tp7582
a(Vor
S'CC'
tp7583
a(Vpart
S'NN'
tp7584
a(Vways
S'NNS'
tp7585
aa(lp7586
(VAnd
S'CC'
tp7587
a(Vyou
S'PRP'
p7588
tp7589
a(Vtake
S'VBP'
p7590
tp7591
a(Vwhat
S'WP'
tp7592
a(Vyou
g7588
tp7593
a(Vneed
g7590
tp7594
aa(lp7595
(VAnd
S'CC'
tp7596
a(Vyou
S'PRP'
tp7597
a(Vdo
S'VBP'
tp7598
a(Vn't
S'RB'
tp7599
a(Vneed
S'VB'
tp7600
a(Vme
S'PRP'
tp7601
aa(lp7602
(VI
S'PRP'
tp7603
a(V'll
S'MD'
tp7604
a(Vgive
S'VB'
tp7605
a(Vyou
S'PRP'
tp7606
a(Vone
S'CD'
tp7607
a(Vmore
S'JJR'
tp7608
a(Vchance
S'NN'
tp7609
aa(lp7610
(VTo
S'TO'
tp7611
a(Vsay
S'VB'
p7612
tp7613
a(Vwe
S'PRP'
tp7614
a(Vcan
S'MD'
tp7615
a(Vchange
g7612
tp7616
a(Vour
S'PRP$'
tp7617
a(Vold
S'JJ'
tp7618
a(Vways
S'NNS'
tp7619
aa(lp7620
(VAnd
S'CC'
tp7621
a(Vyou
S'PRP'
p7622
tp7623
a(Vtake
S'VBP'
p7624
tp7625
a(Vwhat
S'WP'
tp7626
a(Vyou
g7622
tp7627
a(Vneed
g7624
tp7628
aa(lp7629
(VAnd
S'CC'
tp7630
a(Vyou
S'PRP'
p7631
tp7632
a(Vknow
S'VBP'
p7633
tp7634
a(Vyou
g7631
tp7635
a(Vdo
g7633
tp7636
a(Vn't
S'RB'
tp7637
a(Vneed
S'VB'
tp7638
a(Vme
S'PRP'
tp7639
aasVEmpty Threat
p7640
(lp7641
(lp7642
(VDraw
S'VB'
tp7643
a(Va
S'DT'
tp7644
a(Vline
S'NN'
tp7645
a(Vin
S'IN'
tp7646
a(Vthe
S'DT'
tp7647
a(Vsand
S'NN'
tp7648
aa(lp7649
(VLike
S'IN'
tp7650
a(Vthere
S'EX'
tp7651
a(V's
S'VBZ'
tp7652
a(Vnothing
S'NN'
p7653
tp7654
a(Vto
S'TO'
p7655
tp7656
a(Vregret
S'VB'
p7657
tp7658
a(Vand
S'CC'
tp7659
a(Vnothing
g7653
tp7660
a(Vto
g7655
tp7661
a(Vprove
g7657
tp7662
aa(lp7663
(VSet
S'NNP'
tp7664
a(Vmy
S'PRP$'
tp7665
a(Vsights
S'NNS'
tp7666
a(Vhigh
S'JJ'
tp7667
a(Venough
S'RB'
tp7668
aa(lp7669
(VSo
S'RB'
tp7670
a(VI
S'PRP'
tp7671
a(Vsee
S'VBP'
tp7672
a(Vthe
S'DT'
tp7673
a(Vturning
S'NN'
tp7674
a(Vtides
S'NNS'
tp7675
a(Vare
S'VBP'
tp7676
a(Vparting
S'VBG'
tp7677
a(Vfor
S'IN'
tp7678
a(Vyou
S'PRP'
tp7679
aa(lp7680
(VTaking
S'VBG'
tp7681
a(Vback
S'RP'
tp7682
a(Van
S'DT'
tp7683
a(Vempty
S'NN'
tp7684
a(Vthreat
S'NN'
tp7685
aa(lp7686
(VMore
S'JJR'
tp7687
a(Vthan
S'IN'
tp7688
a(Vyou
S'PRP'
tp7689
a(Vcould
S'MD'
tp7690
a(Vever
S'RB'
tp7691
a(Vknow
S'VB'
tp7692
aa(lp7693
(VTake
S'VB'
tp7694
a(Vit
S'PRP'
tp7695
a(Vback
S'RP'
tp7696
a(Vwith
S'IN'
tp7697
a(Vno
S'DT'
tp7698
a(Vregrets
S'NNS'
tp7699
aa(lp7700
(VI
S'PRP'
p7701
tp7702
a(Vwas
S'VBD'
p7703
tp7704
a(Vbetter
S'RB'
tp7705
a(Voff
S'IN'
tp7706
a(Vwhen
S'WRB'
tp7707
a(VI
g7701
tp7708
a(Vwas
g7703
tp7709
a(Von
S'IN'
tp7710
a(Vyour
S'PRP$'
tp7711
a(Vside
S'NN'
tp7712
aa(lp7713
(VAnd
S'CC'
tp7714
a(VI
S'PRP'
tp7715
a(Vwas
S'VBD'
tp7716
a(Vholding
S'VBG'
tp7717
a(Von
S'IN'
tp7718
aa(lp7719
(VTo
S'TO'
tp7720
a(Vtry
S'VB'
p7721
tp7722
a(Vand
S'CC'
tp7723
a(Vnot
S'RB'
tp7724
a(Vforget
g7721
tp7725
aa(lp7726
(VHoping
S'VBG'
tp7727
a(Vthat
S'IN'
tp7728
a(Vyou
S'PRP'
tp7729
a(Vnever
S'RB'
tp7730
a(Vknow
S'VBP'
tp7731
aa(lp7732
(VTake
S'VB'
tp7733
a(Vit
S'PRP'
tp7734
a(Vback
S'RP'
tp7735
a(Vwith
S'IN'
tp7736
a(Vno
S'DT'
tp7737
a(Vregrets
S'NNS'
tp7738
aa(lp7739
(VI
S'PRP'
p7740
tp7741
a(Vwas
S'VBD'
p7742
tp7743
a(Vbetter
S'RB'
tp7744
a(Voff
S'IN'
tp7745
a(Vwhen
S'WRB'
tp7746
a(VI
g7740
tp7747
a(Vwas
g7742
tp7748
a(Von
S'IN'
tp7749
a(Vyour
S'PRP$'
tp7750
a(Vside
S'NN'
tp7751
aa(lp7752
(VAnd
S'CC'
tp7753
a(VI
S'PRP'
tp7754
a(Vwas
S'VBD'
tp7755
a(Vholding
S'VBG'
tp7756
a(Von
S'IN'
tp7757
aa(lp7758
(VNo
S'DT'
tp7759
a(Vmore
S'RBR'
tp7760
a(Vtimes
S'NNS'
tp7761
a(Vsecond
S'JJ'
tp7762
a(Vguessed
S'VBD'
tp7763
aa(lp7764
(VLike
S'IN'
tp7765
a(Vthere
S'EX'
tp7766
a(V's
S'VBZ'
tp7767
a(Vnothing
S'NN'
p7768
tp7769
a(Vto
S'TO'
p7770
tp7771
a(Vforget
S'VB'
p7772
tp7773
a(Vand
S'CC'
tp7774
a(Vnothing
g7768
tp7775
a(Vto
g7770
tp7776
a(Vlose
g7772
tp7777
aa(lp7778
(VHold
S'VB'
tp7779
a(Vmy
S'PRP$'
tp7780
a(Vground
S'NN'
tp7781
a(Vlong
S'RB'
p7782
tp7783
a(Venough
g7782
tp7784
aa(lp7785
(V'Til
S'POS'
tp7786
a(VI
S'PRP'
tp7787
a(Vsee
S'VBP'
tp7788
a(Vthe
S'DT'
tp7789
a(Vturning
S'NN'
tp7790
a(Vtides
S'NNS'
tp7791
a(Vare
S'VBP'
tp7792
a(Vcoming
S'VBG'
tp7793
a(Vfrom
S'IN'
tp7794
a(Vyou
S'PRP'
tp7795
aa(lp7796
(VTaking
S'VBG'
tp7797
a(Vback
S'RP'
tp7798
a(Van
S'DT'
tp7799
a(Vempty
S'NN'
tp7800
a(Vthreat
S'NN'
tp7801
aa(lp7802
(VMore
S'JJR'
tp7803
a(Vthan
S'IN'
tp7804
a(Vyou
S'PRP'
tp7805
a(Vcould
S'MD'
tp7806
a(Vever
S'RB'
tp7807
a(Vknow
S'VB'
tp7808
aa(lp7809
(VTake
S'VB'
tp7810
a(Vit
S'PRP'
tp7811
a(Vback
S'RP'
tp7812
a(Vwith
S'IN'
tp7813
a(Vno
S'DT'
tp7814
a(Vregrets
S'NNS'
tp7815
aa(lp7816
(VI
S'PRP'
p7817
tp7818
a(Vwas
S'VBD'
p7819
tp7820
a(Vbetter
S'RB'
tp7821
a(Voff
S'IN'
tp7822
a(Vwhen
S'WRB'
tp7823
a(VI
g7817
tp7824
a(Vwas
g7819
tp7825
a(Von
S'IN'
tp7826
a(Vyour
S'PRP$'
tp7827
a(Vside
S'NN'
tp7828
aa(lp7829
(VAnd
S'CC'
tp7830
a(VI
S'PRP'
tp7831
a(Vwas
S'VBD'
tp7832
a(Vholding
S'VBG'
tp7833
a(Von
S'IN'
tp7834
aa(lp7835
(VTo
S'TO'
tp7836
a(Vtry
S'VB'
p7837
tp7838
a(Vand
S'CC'
tp7839
a(Vnot
S'RB'
tp7840
a(Vforget
g7837
tp7841
aa(lp7842
(VHoping
S'VBG'
tp7843
a(Vthat
S'IN'
tp7844
a(Vyou
S'PRP'
tp7845
a(Vnever
S'RB'
tp7846
a(Vknow
S'VBP'
tp7847
aa(lp7848
(VTake
S'VB'
tp7849
a(Vit
S'PRP'
tp7850
a(Vback
S'RP'
tp7851
a(Vwith
S'IN'
tp7852
a(Vno
S'DT'
tp7853
a(Vregrets
S'NNS'
tp7854
aa(lp7855
(VI
S'PRP'
p7856
tp7857
a(Vwas
S'VBD'
p7858
tp7859
a(Vbetter
S'RB'
tp7860
a(Voff
S'IN'
tp7861
a(Vwhen
S'WRB'
tp7862
a(VI
g7856
tp7863
a(Vwas
g7858
tp7864
a(Von
S'IN'
tp7865
a(Vyour
S'PRP$'
tp7866
a(Vside
S'NN'
tp7867
aa(lp7868
(VIf
S'IN'
tp7869
a(Vwe
S'PRP'
tp7870
a(Vwant
S'VBP'
tp7871
a(Vto
S'TO'
tp7872
a(Vstay
S'VB'
tp7873
a(Vhere
S'RB'
tp7874
aa(lp7875
(VCan
S'MD'
tp7876
a(Vwe
S'PRP'
tp7877
a(Vsee
S'VB'
tp7878
a(Vthe
S'DT'
tp7879
a(Vwaves
S'NNS'
tp7880
a(V?
S'.'
tp7881
aa(lp7882
(VThey
S'PRP'
tp7883
a(V're
S'VBP'
tp7884
a(Vspilling
S'VBG'
tp7885
a(Vover
S'RP'
tp7886
a(Vus
S'PRP'
tp7887
aa(lp7888
(VFilling
S'VBG'
tp7889
a(Vour
S'PRP$'
tp7890
a(Vinsides
S'NNS'
tp7891
aa(lp7892
(VIn
S'IN'
tp7893
a(Vthe
S'DT'
tp7894
a(Vrising
S'NN'
tp7895
a(Vwater
S'NN'
tp7896
aa(lp7897
(VIn
S'IN'
tp7898
a(Vthe
S'DT'
tp7899
a(Vrising
S'VBG'
tp7900
a(Vtide
S'NN'
tp7901
aa(lp7902
(VThey
S'PRP'
tp7903
a(V're
S'VBP'
tp7904
a(Vspilling
S'VBG'
tp7905
a(Vover
S'IN'
tp7906
a(Vme
S'PRP'
tp7907
aa(lp7908
(VFilling
S'VBG'
tp7909
a(Vmy
S'PRP$'
tp7910
a(Vinsides
S'NNS'
tp7911
aa(lp7912
(VIf
S'IN'
tp7913
a(Vwe
S'PRP'
tp7914
a(Vwant
S'VBP'
tp7915
a(Vto
S'TO'
tp7916
a(Vstay
S'VB'
tp7917
a(Vhere
S'RB'
tp7918
aa(lp7919
(VCan
S'MD'
tp7920
a(Vwe
S'PRP'
tp7921
a(Vsee
S'VB'
tp7922
a(Vthe
S'DT'
tp7923
a(Vwaves
S'NNS'
tp7924
a(V?
S'.'
tp7925
aa(lp7926
(VThey
S'PRP'
tp7927
a(V're
S'VBP'
tp7928
a(Vspilling
S'VBG'
tp7929
a(Vover
S'RP'
tp7930
a(Vus
S'PRP'
tp7931
aa(lp7932
(VFilling
S'VBG'
tp7933
a(Vour
S'PRP$'
tp7934
a(Vinsides
S'NNS'
tp7935
aa(lp7936
(VIn
S'IN'
tp7937
a(Vthe
S'DT'
tp7938
a(Vrising
S'NN'
tp7939
a(Vwater
S'NN'
tp7940
aa(lp7941
(VIn
S'IN'
tp7942
a(Vthe
S'DT'
tp7943
a(Vrising
S'VBG'
tp7944
a(Vtides
S'NNS'
tp7945
aa(lp7946
(VWe
S'PRP'
tp7947
a(Vwait
S'VBP'
tp7948
a(Vfor
S'IN'
tp7949
a(Vthe
S'DT'
tp7950
a(Vfall
S'NN'
tp7951
aa(lp7952
(VMaybe
S'RB'
tp7953
a(Vthe
S'DT'
tp7954
a(Vwater
S'NN'
tp7955
a(V's
S'POS'
tp7956
a(Vhigh
S'JJ'
tp7957
aa(lp7958
(VBut
S'CC'
tp7959
a(VI
S'PRP'
tp7960
a(Vcan
S'MD'
tp7961
a(Vsee
S'VB'
tp7962
a(Vthe
S'DT'
tp7963
a(Vdifference
S'NN'
tp7964
aa(lp7965
(VMaybe
S'RB'
tp7966
a(Vthe
S'DT'
tp7967
a(Vwater
S'NN'
tp7968
a(V's
S'POS'
tp7969
a(Vhigh
S'JJ'
tp7970
aa(lp7971
(VBut
S'CC'
tp7972
a(VI
S'PRP'
tp7973
a(Vcan
S'MD'
tp7974
a(Vsee
S'VB'
tp7975
a(Vthe
S'DT'
tp7976
a(Vdiffrence
S'NN'
tp7977
aa(lp7978
(VMaybe
S'RB'
tp7979
a(Vthe
S'DT'
tp7980
a(Vwater
S'NN'
tp7981
a(V's
S'POS'
tp7982
a(Vhigh
S'JJ'
tp7983
aa(lp7984
(VBut
S'CC'
tp7985
a(VI
S'PRP'
tp7986
a(Vcan
S'MD'
tp7987
a(Vsee
S'VB'
tp7988
a(Vthe
S'DT'
tp7989
a(Vdifference
S'NN'
tp7990
aa(lp7991
(VMaybe
S'RB'
tp7992
a(Vthe
S'DT'
tp7993
a(Vwater
S'NN'
tp7994
a(V's
S'POS'
tp7995
a(Vhigh
S'JJ'
tp7996
aa(lp7997
(VBut
S'CC'
tp7998
a(VI
S'PRP'
tp7999
a(Vknow
S'VBP'
tp8000
a(Vthat
S'IN'
tp8001
a(Vthis
S'DT'
tp8002
a(Vis
S'VBZ'
tp8003
a(Vdifferent
S'JJ'
tp8004
aa(lp8005
(VTaking
S'VBG'
tp8006
a(Vback
S'RP'
tp8007
a(Van
S'DT'
tp8008
a(Vempty
S'NN'
tp8009
a(Vthreat
S'NN'
tp8010
aa(lp8011
(VMore
S'JJR'
tp8012
a(Vthan
S'IN'
tp8013
a(Vyou
S'PRP'
tp8014
a(Vcould
S'MD'
tp8015
a(Vever
S'RB'
tp8016
a(Vknow
S'VB'
tp8017
aa(lp8018
(VTake
S'VB'
tp8019
a(Vit
S'PRP'
tp8020
a(Vback
S'RP'
tp8021
a(Vwith
S'IN'
tp8022
a(Vno
S'DT'
tp8023
a(Vregrets
S'NNS'
tp8024
aa(lp8025
(VI
S'PRP'
p8026
tp8027
a(Vwas
S'VBD'
p8028
tp8029
a(Vbetter
S'RB'
tp8030
a(Voff
S'IN'
tp8031
a(Vwhen
S'WRB'
tp8032
a(VI
g8026
tp8033
a(Vwas
g8028
tp8034
a(Von
S'IN'
tp8035
a(Vyour
S'PRP$'
tp8036
a(Vside
S'NN'
tp8037
aa(lp8038
(VAnd
S'CC'
tp8039
a(VI
S'PRP'
tp8040
a(Vwas
S'VBD'
tp8041
a(Vholding
S'VBG'
tp8042
a(Von
S'IN'
tp8043
aa(lp8044
(VTo
S'TO'
tp8045
a(Vtry
S'VB'
p8046
tp8047
a(Vand
S'CC'
tp8048
a(Vnot
S'RB'
tp8049
a(Vforget
g8046
tp8050
aa(lp8051
(VHoping
S'VBG'
tp8052
a(Vthat
S'IN'
tp8053
a(Vyou
S'PRP'
tp8054
a(Vnever
S'RB'
tp8055
a(Vknow
S'VBP'
tp8056
aa(lp8057
(VTake
S'VB'
tp8058
a(Vit
S'PRP'
tp8059
a(Vback
S'RP'
tp8060
a(Vwith
S'IN'
tp8061
a(Vno
S'DT'
tp8062
a(Vregrets
S'NNS'
tp8063
aa(lp8064
(VI
S'PRP'
p8065
tp8066
a(Vwas
S'VBD'
p8067
tp8068
a(Vbetter
S'RB'
tp8069
a(Voff
S'IN'
tp8070
a(Vwhen
S'WRB'
tp8071
a(VI
g8065
tp8072
a(Vwas
g8067
tp8073
a(Von
S'IN'
tp8074
a(Vyour
S'PRP$'
tp8075
a(Vside
S'NN'
tp8076
aa(lp8077
(VAnd
S'CC'
tp8078
a(VI
S'PRP'
tp8079
a(Vwas
S'VBD'
tp8080
a(Vholding
S'VBG'
tp8081
a(Von
S'IN'
tp8082
aa(lp8083
(VTake
S'VB'
p8084
tp8085
a(V,
S','
tp8086
a(Vtake
g8084
tp8087
a(V,
S','
tp8088
a(Vtake
g8084
tp8089
a(V,
S','
tp8090
a(Vtake
g8084
tp8091
aasVScience / Visions
p8092
(lp8093
(lp8094
(VBreathe
S'NN'
tp8095
aa(lp8096
(VDo
S'VBP'
tp8097
a(Vn't
S'RB'
tp8098
a(Vspeak
S'VB'
tp8099
aa(lp8100
(VIt
S'PRP'
tp8101
a(V's
S'VBZ'
tp8102
a(Vleaving
S'VBG'
tp8103
a(Vyour
S'PRP$'
tp8104
a(Vbody
S'NN'
tp8105
a(Vnow
S'RB'
tp8106
aa(lp8107
(VSlow
S'JJ'
tp8108
a(Vheart
S'NN'
tp8109
aa(lp8110
(VSet
S'NNP'
tp8111
a(Vfree
S'JJ'
tp8112
aa(lp8113
(VA
S'DT'
tp8114
a(Vcircuit
S'NN'
p8115
tp8116
a(Vof
S'IN'
tp8117
a(Vconsciousness
g8115
tp8118
aa(lp8119
(VWhen
S'WRB'
tp8120
a(Vyou
S'PRP'
tp8121
a(Vwere
S'VBD'
tp8122
a(Vtruly
S'RB'
tp8123
a(Vyourself
S'PRP'
tp8124
aa(lp8125
(VYou
S'PRP'
tp8126
a(Vwill
S'MD'
tp8127
aa(lp8128
(VSuccumb
S'NNP'
tp8129
a(Vto
S'TO'
tp8130
a(Va
S'DT'
tp8131
a(Vpermanence
S'NN'
tp8132
aa(lp8133
(VA
S'DT'
tp8134
a(Vlight
S'NN'
tp8135
aa(lp8136
(VBy
S'IN'
tp8137
a(Vday
S'NN'
tp8138
aa(lp8139
(VA
S'DT'
tp8140
a(Vshadow
S'NN'
tp8141
a(Vresides
S'NNS'
tp8142
a(Vby
S'IN'
tp8143
a(Vnight
S'NN'
tp8144
aa(lp8145
(VI
S'PRP'
p8146
tp8147
a(V(
S'('
tp8148
a(VI
g8146
tp8149
a(V)
S')'
tp8150
aa(lp8151
(VHear
S'NNP'
tp8152
a(V(
S'('
tp8153
a(Vhear
S'VBP'
tp8154
a(V)
S')'
tp8155
aa(lp8156
(VYour
S'PRP$'
tp8157
a(V(
S'('
tp8158
a(Vyour
S'PRP$'
tp8159
a(V)
S')'
tp8160
aa(lp8161
(VBreathing
S'VBG'
tp8162
aa(lp8163
(VI
S'PRP'
p8164
tp8165
a(V(
S'('
tp8166
a(VI
g8164
tp8167
a(V)
S')'
tp8168
aa(lp8169
(VFeel
S'NNP'
tp8170
a(V(
S'('
tp8171
a(Vfeel
S'NN'
tp8172
a(V)
S')'
tp8173
aa(lp8174
(VYou
S'PRP'
tp8175
a(V(
S'('
tp8176
a(Vyou
S'PRP'
tp8177
a(V)
S')'
tp8178
aa(lp8179
(VLeaving
S'VBG'
tp8180
aa(lp8181
(VWith
S'IN'
tp8182
a(Vunderstanding
S'JJ'
tp8183
aa(lp8184
(VYou
S'PRP'
tp8185
a(Vwo
S'MD'
tp8186
a(Vn't
S'RB'
tp8187
a(Vlet
S'VB'
p8188
tp8189
a(Vit
S'PRP'
tp8190
a(Vcast
g8188
tp8191
a(Vyou
S'PRP'
tp8192
a(Vdown
S'RP'
tp8193
aa(lp8194
(VA
S'DT'
tp8195
a(Vmind
S'NN'
tp8196
a(Vfull
S'JJ'
tp8197
a(Vof
S'IN'
tp8198
a(Vquestions
S'NNS'
tp8199
aa(lp8200
(VA
S'DT'
tp8201
a(Vcurrent
S'JJ'
tp8202
a(Vto
S'TO'
tp8203
a(Vpurify
S'VB'
tp8204
aa(lp8205
(VScience
S'NN'
p8206
tp8207
a(Vand
S'CC'
tp8208
a(Vvision
g8206
tp8209
aa(lp8210
(VBe
S'NN'
p8211
tp8212
a(Vnear
S'IN'
tp8213
a(Vwhen
S'WRB'
tp8214
a(VI
S'PRP'
tp8215
a(Vcall
S'VBP'
tp8216
a(Vyour
S'PRP$'
tp8217
a(Vname
g8211
tp8218
aa(lp8219
(VOr
S'CC'
tp8220
a(Vask
S'VB'
tp8221
a(Vme
S'PRP'
tp8222
a(Va
S'DT'
tp8223
a(Vquestion
S'NN'
tp8224
aa(lp8225
(VI
S'PRP'
p8226
tp8227
a(V(
S'('
tp8228
a(VI
g8226
tp8229
a(V)
S')'
tp8230
aa(lp8231
(VHear
S'NNP'
tp8232
a(V(
S'('
tp8233
a(Vhear
S'VBP'
tp8234
a(V)
S')'
tp8235
aa(lp8236
(VYour
S'PRP$'
tp8237
a(V(
S'('
tp8238
a(Vyour
S'PRP$'
tp8239
a(V)
S')'
tp8240
aa(lp8241
(VBreathing
S'VBG'
tp8242
aa(lp8243
(VBreathe
S'NN'
tp8244
aa(lp8245
(VDo
S'VBP'
tp8246
a(Vn't
S'RB'
tp8247
a(Vspeak
S'VB'
tp8248
aa(lp8249
(VIt
S'PRP'
tp8250
a(V's
S'VBZ'
tp8251
a(Vleaving
S'VBG'
tp8252
a(Vyour
S'PRP$'
tp8253
a(Vbody
S'NN'
tp8254
a(Vnow
S'RB'
tp8255
aa(lp8256
(VI
S'PRP'
p8257
tp8258
a(V(
S'('
tp8259
a(VI
g8257
tp8260
a(V)
S')'
tp8261
aa(lp8262
(VFeel
S'NNP'
tp8263
a(V(
S'('
tp8264
a(Vfeel
S'NN'
tp8265
a(V)
S')'
tp8266
aa(lp8267
(VYou
S'PRP'
tp8268
a(V(
S'('
tp8269
a(Vyou
S'PRP'
tp8270
a(V)
S')'
tp8271
aa(lp8272
(VLeaving
S'VBG'
tp8273
aa(lp8274
(VHeart
S'NN'
tp8275
aa(lp8276
(VSet
S'NNP'
tp8277
a(Vfree
S'JJ'
tp8278
aa(lp8279
(VA
S'DT'
tp8280
a(Vcircuit
S'NN'
p8281
tp8282
a(Vof
S'IN'
tp8283
a(Vconsciousness
g8281
tp8284
aa(lp8285
(VI
S'PRP'
p8286
tp8287
a(V(
S'('
tp8288
a(VI
g8286
tp8289
a(V)
S')'
tp8290
aa(lp8291
(VHear
S'NNP'
tp8292
a(V(
S'('
tp8293
a(Vhear
S'VBP'
tp8294
a(V)
S')'
tp8295
aa(lp8296
(VYour
S'PRP$'
tp8297
a(V(
S'('
tp8298
a(Vyour
S'PRP$'
tp8299
a(V)
S')'
tp8300
aa(lp8301
(VBreathing
S'VBG'
tp8302
aa(lp8303
(VLight
S'NN'
tp8304
aa(lp8305
(VBy
S'IN'
tp8306
a(Vday
S'NN'
tp8307
aa(lp8308
(VA
S'DT'
tp8309
a(Vshadow
S'NN'
tp8310
a(Vresides
S'NNS'
tp8311
a(Vby
S'IN'
tp8312
a(Vnight
S'NN'
tp8313
aa(lp8314
(VI
S'PRP'
p8315
tp8316
a(V(
S'('
tp8317
a(VI
g8315
tp8318
a(V)
S')'
tp8319
aa(lp8320
(VFeel
S'NNP'
tp8321
a(V(
S'('
tp8322
a(Vfeel
S'NN'
tp8323
a(V)
S')'
tp8324
aa(lp8325
(VYou
S'PRP'
tp8326
a(V(
S'('
tp8327
a(Vyou
S'PRP'
tp8328
a(V)
S')'
tp8329
aa(lp8330
(VLeaving
S'VBG'
tp8331
aa(lp8332
(VWith
S'IN'
tp8333
a(Vunderstanding
S'JJ'
tp8334
aa(lp8335
(VYou
S'PRP'
tp8336
a(Vwo
S'MD'
tp8337
a(Vn't
S'RB'
tp8338
a(Vlet
S'VB'
p8339
tp8340
a(Vit
S'PRP'
tp8341
a(Vcast
g8339
tp8342
a(Vyou
S'PRP'
tp8343
a(Vdown
S'RP'
tp8344
aa(lp8345
(VA
S'DT'
tp8346
a(Vmind
S'NN'
tp8347
a(Vfull
S'JJ'
tp8348
a(Vof
S'IN'
tp8349
a(Vquestions
S'NNS'
tp8350
aa(lp8351
(VA
S'DT'
tp8352
a(Vcurrent
S'JJ'
tp8353
a(Vto
S'TO'
tp8354
a(Vpurify
S'VB'
tp8355
aa(lp8356
(VScience
S'NN'
p8357
tp8358
a(Vand
S'CC'
tp8359
a(Vvision
g8357
tp8360
aa(lp8361
(VBe
S'NN'
p8362
tp8363
a(Vnear
S'IN'
tp8364
a(Vwhen
S'WRB'
tp8365
a(VI
S'PRP'
tp8366
a(Vcall
S'VBP'
tp8367
a(Vyour
S'PRP$'
tp8368
a(Vname
g8362
tp8369
aa(lp8370
(VA
S'DT'
tp8371
a(Vmind
S'NN'
tp8372
a(Vfull
S'JJ'
tp8373
a(Vof
S'IN'
tp8374
a(Vquestions
S'NNS'
tp8375
aa(lp8376
(VA
S'DT'
tp8377
a(Vcurrent
S'JJ'
tp8378
a(Vto
S'TO'
tp8379
a(Vpurify
S'VB'
tp8380
aa(lp8381
(VScience
S'NN'
p8382
tp8383
a(Vand
S'CC'
tp8384
a(Vvision
g8382
tp8385
aa(lp8386
(VBe
S'NN'
p8387
tp8388
a(Vnear
S'IN'
tp8389
a(Vwhen
S'WRB'
tp8390
a(VI
S'PRP'
tp8391
a(Vcall
S'VBP'
tp8392
a(Vyour
S'PRP$'
tp8393
a(Vname
g8387
tp8394
aa(lp8395
(VOr
S'CC'
tp8396
a(Vask
S'VB'
tp8397
a(Vme
S'PRP'
tp8398
a(Va
S'DT'
tp8399
a(Vquestion
S'NN'
tp8400
aasVIt's Not Right But It's Okay
p8401
(lp8402
(lp8403
(VFriday
S'NNP'
tp8404
a(Vnight
S'NN'
tp8405
a(Vyou
S'PRP'
tp8406
a(Vand
S'CC'
tp8407
a(Vyour
S'PRP$'
tp8408
a(Vboys
S'NNS'
tp8409
a(Vwent
S'VBD'
tp8410
a(Vout
S'IN'
tp8411
a(Vto
S'TO'
tp8412
a(Veat
S'VB'
tp8413
aa(lp8414
(VThen
S'RB'
tp8415
a(Vthey
S'PRP'
tp8416
a(Vhung
S'VBP'
tp8417
a(Vout
S'RP'
tp8418
aa(lp8419
(VBut
S'CC'
tp8420
a(Vyou
S'PRP'
tp8421
a(Vcame
S'VBD'
tp8422
a(Vhome
S'NN'
tp8423
a(Varound
S'IN'
tp8424
a(Vthree
S'CD'
tp8425
aa(lp8426
(VIf
S'IN'
tp8427
a(Vsix
S'CD'
tp8428
a(Vof
S'IN'
tp8429
a(Vy'all
S'NN'
tp8430
a(Vwent
S'VBD'
tp8431
a(Vout
S'RP'
tp8432
aa(lp8433
(VThen
S'RB'
tp8434
a(Vfour
S'CD'
tp8435
a(Vof
S'IN'
tp8436
a(Vyou
S'PRP'
tp8437
a(Vwere
S'VBD'
tp8438
a(Vreally
S'RB'
tp8439
a(Vcheap
S'JJ'
tp8440
aa(lp8441
(VCause
S'NNP'
tp8442
a(Vonly
S'RB'
tp8443
a(Vtwo
S'CD'
tp8444
a(Vof
S'IN'
tp8445
a(Vyou
S'PRP'
tp8446
a(Vhad
S'VBD'
tp8447
a(Vdinner
S'NN'
tp8448
aa(lp8449
(VI
S'PRP'
tp8450
a(Vfound
S'VBD'
tp8451
a(Vyour
S'PRP$'
tp8452
a(Vcredit
S'NN'
tp8453
a(Vcard
S'NN'
p8454
tp8455
a(Vreceipt
g8454
tp8456
aa(lp8457
(VIt
S'PRP'
tp8458
a(V's
S'VBZ'
tp8459
a(Vnot
S'RB'
tp8460
a(Vright
S'JJ'
tp8461
aa(lp8462
(VBut
S'CC'
tp8463
a(Vit
S'PRP'
tp8464
a(V's
S'VBZ'
tp8465
a(Vokay
S'JJ'
tp8466
aa(lp8467
(VI
S'PRP'
tp8468
a(V'm
S'VBP'
tp8469
a(Vgon
S'VBG'
tp8470
a(Vna
S'TO'
tp8471
a(Vmake
S'VB'
tp8472
a(Vit
S'PRP'
tp8473
a(Vanyway
S'RP'
tp8474
aa(lp8475
(VPack
S'VB'
p8476
tp8477
a(Vyour
S'PRP$'
tp8478
a(Vbags
S'NNS'
tp8479
a(Vup
S'RB'
tp8480
a(Vand
S'CC'
tp8481
a(Vleave
g8476
tp8482
aa(lp8483
(VDo
S'VBP'
tp8484
a(Vn't
S'RB'
tp8485
a(Vyou
S'PRP'
tp8486
a(Vdare
S'VB'
p8487
tp8488
a(Vcome
g8487
tp8489
a(Vrunning
S'VBG'
tp8490
a(Vback
S'RB'
tp8491
a(Vto
S'TO'
tp8492
a(Vme
S'PRP'
tp8493
aa(lp8494
(VIt
S'PRP'
tp8495
a(V's
S'VBZ'
tp8496
a(Vnot
S'RB'
tp8497
a(Vright
S'JJ'
tp8498
aa(lp8499
(VBut
S'CC'
tp8500
a(Vit
S'PRP'
tp8501
a(V's
S'VBZ'
tp8502
a(Vokay
S'JJ'
tp8503
aa(lp8504
(VI
S'PRP'
tp8505
a(V'm
S'VBP'
tp8506
a(Vgon
S'VBG'
tp8507
a(Vna
S'TO'
tp8508
a(Vmake
S'VB'
tp8509
a(Vit
S'PRP'
tp8510
a(Vanyway
S'RP'
tp8511
aa(lp8512
(VClose
S'RB'
tp8513
a(Vthe
S'DT'
tp8514
a(Vdoor
S'NN'
tp8515
a(Vbehind
S'IN'
tp8516
a(Vyou
S'PRP'
tp8517
aa(lp8518
(VLeave
S'VB'
tp8519
a(Vyour
S'PRP$'
tp8520
a(Vkey
S'NN'
tp8521
aa(lp8522
(VI
S'PRP'
tp8523
a(V'd
S'MD'
tp8524
a(Vrather
S'RB'
tp8525
a(Vbe
S'VB'
tp8526
a(Valone
S'RB'
tp8527
aa(lp8528
(VThan
S'NNP'
tp8529
a(Vunhappy
S'JJ'
tp8530
aa(lp8531
(VI
S'PRP'
tp8532
a(V'll
S'MD'
tp8533
a(Vpack
S'VB'
tp8534
a(Vyour
S'PRP$'
tp8535
a(Vbags
S'NNS'
tp8536
aa(lp8537
(VSo
S'IN'
tp8538
a(Vyou
S'PRP'
tp8539
a(Vcan
S'MD'
tp8540
a(Vleave
S'VB'
tp8541
a(Vtown
S'NN'
tp8542
a(Vfor
S'IN'
tp8543
a(Va
S'DT'
tp8544
a(Vweek
S'NN'
tp8545
aa(lp8546
(VThe
S'DT'
tp8547
a(Vphone
S'NN'
tp8548
a(Vrings
S'NNS'
tp8549
aa(lp8550
(VAnd
S'CC'
tp8551
a(Vthen
S'RB'
tp8552
a(Vyou
S'PRP'
tp8553
a(Vlook
S'VBP'
tp8554
a(Vat
S'IN'
tp8555
a(Vme
S'PRP'
tp8556
aa(lp8557
(VYou
S'PRP'
tp8558
a(Vsaid
S'VBD'
tp8559
a(Vit
S'PRP'
tp8560
a(Vwas
S'VBD'
tp8561
a(Vone
S'CD'
tp8562
a(Vof
S'IN'
tp8563
a(Vyour
S'PRP$'
tp8564
a(Vfriends
S'NNS'
tp8565
aa(lp8566
(VDown
S'RB'
tp8567
a(Von
S'IN'
tp8568
a(V54th
S'CD'
tp8569
a(VSt
S'NNP'
tp8570
a(V.
S'.'
tp8571
aa(lp8572
(VSo
S'RB'
tp8573
a(Vwhy
S'WRB'
tp8574
a(Vdid
S'VBD'
tp8575
a(V213
S'CD'
tp8576
aa(lp8577
(VShow
S'NNP'
p8578
tp8579
a(Vup
S'RP'
tp8580
a(Von
S'IN'
tp8581
a(Vyour
S'PRP$'
tp8582
a(VCaller
g8578
tp8583
a(VI.D
g8578
tp8584
a(V.
S'.'
tp8585
aa(lp8586
(VI
S'PRP'
tp8587
a(V've
S'VBP'
tp8588
a(Vbeen
S'VBN'
tp8589
a(Vthrough
S'IN'
p8590
tp8591
a(Vall
S'DT'
tp8592
a(Vof
S'IN'
tp8593
a(Vthis
S'DT'
tp8594
a(Vbefore
g8590
tp8595
aa(lp8596
(VSo
S'IN'
tp8597
a(Vhow
S'WRB'
tp8598
a(Vcould
S'MD'
tp8599
a(Vyou
S'PRP'
tp8600
a(Vthink
S'VB'
tp8601
aa(lp8602
(VThat
S'DT'
tp8603
a(VI
S'PRP'
tp8604
a(Vwould
S'MD'
tp8605
a(Vstand
S'VB'
tp8606
a(Varound
S'RP'
tp8607
aa(lp8608
(VAnd
S'CC'
tp8609
a(Vtake
S'VB'
tp8610
a(Vsome
S'DT'
tp8611
a(Vmore
S'RBR'
tp8612
aa(lp8613
(VThings
S'NNS'
tp8614
a(Vare
S'VBP'
tp8615
a(Vgon
S'VBG'
tp8616
a(Vna
S'TO'
tp8617
a(Vchange
S'VB'
tp8618
aa(lp8619
(VThat
S'DT'
tp8620
a(V's
S'VBZ'
tp8621
a(Vwhy
S'WRB'
tp8622
a(Vyou
S'PRP'
tp8623
a(Vhave
S'VBP'
tp8624
a(Vto
S'TO'
tp8625
a(Vleave
S'VB'
tp8626
aa(lp8627
(VSo
S'RB'
tp8628
a(Vdo
S'VBP'
tp8629
a(Vn't
S'RB'
tp8630
a(Vturn
S'VB'
p8631
tp8632
a(Varound
S'RP'
tp8633
a(Vto
S'TO'
tp8634
a(Vsee
g8631
tp8635
a(Vmy
S'PRP$'
tp8636
a(Vface
S'NN'
tp8637
aa(lp8638
(VThere
S'EX'
tp8639
a(V's
S'VBZ'
tp8640
a(Vno
S'DT'
tp8641
a(Vmore
S'JJR'
tp8642
a(Vfears
S'NNS'
p8643
tp8644
a(Vand
S'CC'
tp8645
a(Vtears
g8643
tp8646
aa(lp8647
(VFor
S'IN'
tp8648
a(Vyou
S'PRP'
tp8649
a(Vto
S'TO'
tp8650
a(Vsee
S'VB'
tp8651
aa(lp8652
(VWas
S'IN'
p8653
tp8654
a(Vit
S'PRP'
tp8655
a(Vreally
S'RB'
tp8656
a(Vworth
g8653
tp8657
a(Vyou
S'PRP'
tp8658
a(Vgoing
S'VBG'
tp8659
a(Vout
g8653
tp8660
a(Vlike
g8653
tp8661
a(Vthat
S'DT'
tp8662
aa(lp8663
(VSee
S'VB'
tp8664
a(VI
S'PRP'
tp8665
a(V'm
S'VBP'
tp8666
a(Vmoving
S'VBG'
tp8667
a(Von
S'IN'
tp8668
aa(lp8669
(VAnd
S'CC'
tp8670
a(VI
S'PRP'
tp8671
a(Vrefuse
S'VBP'
tp8672
a(Vto
S'TO'
tp8673
a(Vturn
S'VB'
tp8674
a(Vback
S'RP'
tp8675
aa(lp8676
(VSee
S'VB'
tp8677
a(Vall
S'DT'
tp8678
a(Vof
S'IN'
tp8679
a(Vthis
S'DT'
tp8680
a(Vtime
S'NN'
tp8681
aa(lp8682
(VI
S'PRP'
p8683
tp8684
a(Vthought
S'VBD'
p8685
tp8686
a(VI
g8683
tp8687
a(Vhad
g8685
tp8688
a(Vsomebody
S'NN'
tp8689
a(Vdown
S'RP'
tp8690
a(Vfor
S'IN'
tp8691
a(Vme
S'PRP'
tp8692
aa(lp8693
(VIt
S'PRP'
tp8694
a(Vturns
S'VBZ'
tp8695
a(Vout
S'RP'
tp8696
aa(lp8697
(VYou
S'PRP'
tp8698
a(Vwere
S'VBD'
tp8699
a(Vmaking
S'VBG'
tp8700
a(Va
S'DT'
tp8701
a(Vfool
S'NN'
p8702
tp8703
a(Vof
S'IN'
tp8704
a(Vmee
g8702
tp8705
aasVLies
p8706
(lp8707
(lp8708
(VFaster
S'NNP'
tp8709
a(V,
S','
tp8710
a(Vfaster
S'RBR'
tp8711
a(V,
S','
tp8712
a(Vyou
S'PRP'
tp8713
a(Vwo
S'MD'
tp8714
a(Vn't
S'RB'
tp8715
a(Vgo
S'VB'
tp8716
a(Vfar
S'RB'
tp8717
aa(lp8718
(VShould
S'MD'
tp8719
a(Vn't
S'RB'
tp8720
a(Vleave
S'VB'
tp8721
a(V,
S','
tp8722
a(Vfeeling
S'VBG'
tp8723
a(Vfaint
S'NN'
tp8724
a(V,
S','
tp8725
a(Vwe
S'PRP'
tp8726
a(Vboth
S'DT'
tp8727
a(Vknow
S'VBP'
tp8728
a(Vwhy
S'WRB'
tp8729
aa(lp8730
(VYou
S'PRP'
tp8731
a(V've
S'VBP'
tp8732
a(Vgot
S'VBN'
tp8733
a(Vto
S'TO'
tp8734
a(Vshow
S'VB'
tp8735
a(Vme
S'PRP'
tp8736
a(V,
S','
tp8737
a(Vboth
S'DT'
tp8738
a(Vknees
S'NNS'
tp8739
a(V,
S','
tp8740
a(Vcold
S'JJ'
tp8741
a(VI
S'PRP'
tp8742
a(Vlie
S'VBP'
tp8743
aa(lp8744
(VHold
S'VB'
p8745
tp8746
a(Vme
S'PRP'
p8747
tp8748
a(Vslowly
S'RB'
tp8749
a(V,
S','
tp8750
a(Vhide
g8745
tp8751
a(Vme
g8747
tp8752
a(Vtill
S'IN'
tp8753
a(VI
S'PRP'
tp8754
a(Vcan
S'MD'
tp8755
a(Vfly
g8745
tp8756
aa(lp8757
(VAlways
S'IN'
tp8758
a(Vwe
S'PRP'
p8759
tp8760
a(Vcan
S'MD'
p8761
tp8762
a(Vsing
S'VB'
p8763
tp8764
a(V,
S','
tp8765
a(Vwe
g8759
tp8766
a(Vcan
g8761
tp8767
a(Vmake
g8763
tp8768
a(Vtime
S'NN'
tp8769
aa(lp8770
(VOld
S'NNP'
tp8771
a(Vsongs
S'NNS'
tp8772
a(V,
S','
tp8773
a(Vflood
S'NN'
p8774
tp8775
a(Vand
S'CC'
tp8776
a(Vflame
g8774
tp8777
a(V,
S','
tp8778
a(Vyou
S'PRP'
tp8779
a(Vcould
S'MD'
tp8780
a(Vbe
S'VB'
tp8781
a(Vmine
S'JJ'
tp8782
aa(lp8783
(VBut
S'CC'
tp8784
a(Vyou
S'PRP'
tp8785
a(V've
S'VBP'
tp8786
a(Vgot
S'VBN'
tp8787
a(Vto
S'TO'
tp8788
a(Vshow
S'VB'
tp8789
a(Vme
S'PRP'
tp8790
a(V,
S','
tp8791
a(Vboth
S'DT'
tp8792
a(Vknees
S'NNS'
tp8793
a(V,
S','
tp8794
a(Vskin
S'NN'
p8795
tp8796
a(Vand
S'CC'
tp8797
a(Vbone
g8795
tp8798
aa(lp8799
(VClothe
S'NNP'
tp8800
a(Vme
S'PRP'
p8801
tp8802
a(V,
S','
tp8803
a(Vthrow
S'VB'
p8804
tp8805
a(Vme
g8801
tp8806
a(V,
S','
tp8807
a(Vmove
g8804
tp8808
a(Vme
g8801
tp8809
a(Vtill
g8804
tp8810
aa(lp8811
(VI
S'PRP'
tp8812
a(Vcan
S'MD'
tp8813
a(Vsell
S'VB'
p8814
tp8815
a(Vyou
S'PRP'
p8816
tp8817
a(Vlies
S'NNS'
tp8818
a(V,
S','
tp8819
a(Vyou
g8816
tp8820
a(Vca
S'MD'
tp8821
a(Vn't
S'RB'
tp8822
a(Vget
g8814
tp8823
a(Venough
S'JJ'
tp8824
aa(lp8825
(VMake
S'VB'
tp8826
a(Va
S'DT'
tp8827
a(Vtrue
S'JJ'
tp8828
a(Vbeliever
S'NN'
tp8829
a(Vof
S'IN'
tp8830
aa(lp8831
(VAnyone
S'NN'
tp8832
a(V,
S','
tp8833
a(Vanyone
S'NN'
p8834
tp8835
a(V,
S','
tp8836
a(Vanyone
g8834
tp8837
aa(lp8838
(VI
S'PRP'
p8839
tp8840
a(Vcan
S'MD'
tp8841
a(Vcall
S'VB'
tp8842
a(Vyou
S'PRP'
tp8843
a(Vup
S'IN'
tp8844
a(Vif
S'IN'
tp8845
a(VI
g8839
tp8846
a(Vfeel
S'VBP'
tp8847
a(Valone
S'RB'
tp8848
aa(lp8849
(VI
S'PRP'
tp8850
a(Vcan
S'MD'
tp8851
a(Vfeed
S'VB'
tp8852
a(Vyour
S'PRP$'
tp8853
a(Vdirty
S'NN'
p8854
tp8855
a(Vmind
g8854
tp8856
aa(lp8857
(VLike
S'IN'
tp8858
a(VI
S'PRP'
p8859
tp8860
a(Vknow
S'VBP'
p8861
tp8862
a(V,
S','
tp8863
a(Vlike
S'IN'
tp8864
a(VI
g8859
tp8865
a(Vknow
g8861
tp8866
a(Vwhat
S'WP'
tp8867
a(Vyou
S'PRP'
tp8868
a(Vwant
g8861
tp8869
aa(lp8870
(VIcon
S'NNP'
tp8871
a(Vof
S'IN'
tp8872
a(Vsymmetry
S'NN'
tp8873
a(V,
S','
tp8874
a(Vswallowing
S'VBG'
tp8875
a(Vsigns
S'NNS'
tp8876
aa(lp8877
(VFall
S'DT'
tp8878
a(Vdown
S'RP'
tp8879
a(Vin
S'IN'
tp8880
a(Vfront
S'NN'
tp8881
a(Vof
S'IN'
tp8882
a(Vme
S'PRP'
tp8883
a(V,
S','
tp8884
a(Vfollow
S'VB'
tp8885
a(Vmy
S'PRP$'
tp8886
a(Veyes
S'NNS'
tp8887
aa(lp8888
(VBut
S'CC'
tp8889
a(VI
S'PRP'
tp8890
a(V've
S'VBP'
tp8891
a(Vgot
S'VBN'
tp8892
a(Vto
S'TO'
tp8893
a(Vsee
S'VB'
tp8894
a(Vyou
S'PRP'
tp8895
a(Vmoving
S'VBG'
tp8896
a(V,
S','
tp8897
a(Vwaste
S'NN'
tp8898
a(Vno
S'DT'
tp8899
a(Vtime
S'NN'
tp8900
aa(lp8901
(VTeach
S'VB'
p8902
tp8903
a(Vme
S'PRP'
p8904
tp8905
a(V,
S','
tp8906
a(Vmake
g8902
tp8907
a(Vme
g8904
tp8908
a(Vholy
g8902
tp8909
a(Vtill
S'NN'
tp8910
aa(lp8911
(VI
S'PRP'
tp8912
a(Vcan
S'MD'
tp8913
a(Vsell
S'VB'
p8914
tp8915
a(Vyou
S'PRP'
p8916
tp8917
a(Vlies
S'NNS'
tp8918
a(V,
S','
tp8919
a(Vyou
g8916
tp8920
a(Vca
S'MD'
tp8921
a(Vn't
S'RB'
tp8922
a(Vget
g8914
tp8923
a(Venough
S'JJ'
tp8924
aa(lp8925
(VMake
S'VB'
tp8926
a(Va
S'DT'
tp8927
a(Vtrue
S'JJ'
tp8928
a(Vbeliever
S'NN'
tp8929
a(Vof
S'IN'
tp8930
aa(lp8931
(VAnyone
S'NN'
tp8932
a(V,
S','
tp8933
a(Vanyone
S'NN'
p8934
tp8935
a(V,
S','
tp8936
a(Vanyone
g8934
tp8937
aa(lp8938
(VI
S'PRP'
p8939
tp8940
a(Vcan
S'MD'
tp8941
a(Vcall
S'VB'
tp8942
a(Vyou
S'PRP'
tp8943
a(Vup
S'IN'
tp8944
a(Vif
S'IN'
tp8945
a(VI
g8939
tp8946
a(Vfeel
S'VBP'
tp8947
a(Valone
S'RB'
tp8948
aa(lp8949
(VI
S'PRP'
tp8950
a(Vcan
S'MD'
tp8951
a(Vfeed
S'VB'
tp8952
a(Vyour
S'PRP$'
tp8953
a(Vdirty
S'NN'
p8954
tp8955
a(Vmind
g8954
tp8956
aa(lp8957
(VLike
S'IN'
tp8958
a(VI
S'PRP'
p8959
tp8960
a(Vknow
S'VBP'
p8961
tp8962
a(V,
S','
tp8963
a(Vlike
S'IN'
tp8964
a(VI
g8959
tp8965
a(Vknow
g8961
tp8966
a(Vwhat
S'WP'
tp8967
a(Vyou
S'PRP'
tp8968
a(Vwant
g8961
tp8969
aa(lp8970
(VAnyone
S'NN'
tp8971
a(V,
S','
tp8972
a(Vanyone
S'NN'
p8973
tp8974
a(V,
S','
tp8975
a(Vanyone
g8973
tp8976
aa(lp8977
(VAnyone
S'NN'
tp8978
a(V,
S','
tp8979
a(Vanyone
S'NN'
p8980
tp8981
a(V,
S','
tp8982
a(Vanyone
g8980
tp8983
aa(lp8984
(VLike
S'IN'
tp8985
a(VI
S'PRP'
p8986
tp8987
a(Vknow
S'VBP'
p8988
tp8989
a(V,
S','
tp8990
a(Vlike
S'IN'
tp8991
a(VI
g8986
tp8992
a(Vknow
g8988
tp8993
a(Vwhat
S'WP'
tp8994
a(Vyou
S'PRP'
tp8995
a(Vwant
g8988
tp8996
aa(lp8997
(VLike
S'IN'
tp8998
a(VI
S'PRP'
p8999
tp9000
a(Vknow
S'VBP'
p9001
tp9002
a(V,
S','
tp9003
a(Vlike
S'IN'
tp9004
a(VI
g8999
tp9005
a(Vknow
g9001
tp9006
a(Vwhat
S'WP'
tp9007
a(Vyou
S'PRP'
tp9008
a(Vwant
g9001
tp9009
aa(lp9010
(VI
S'PRP'
tp9011
a(Vcan
S'MD'
tp9012
a(Vsell
S'VB'
p9013
tp9014
a(Vyou
S'PRP'
p9015
tp9016
a(Vlies
S'NNS'
tp9017
a(V,
S','
tp9018
a(Vyou
g9015
tp9019
a(Vca
S'MD'
tp9020
a(Vn't
S'RB'
tp9021
a(Vget
g9013
tp9022
a(Venough
S'JJ'
tp9023
aa(lp9024
(VMake
S'VB'
tp9025
a(Va
S'DT'
tp9026
a(Vtrue
S'JJ'
tp9027
a(Vbeliever
S'NN'
tp9028
a(Vof
S'IN'
tp9029
aa(lp9030
(VAnyone
S'NN'
tp9031
a(V,
S','
tp9032
a(Vanyone
S'NN'
p9033
tp9034
a(V,
S','
tp9035
a(Vanyone
g9033
tp9036
aa(lp9037
(VI
S'PRP'
p9038
tp9039
a(Vcan
S'MD'
tp9040
a(Vcall
S'VB'
tp9041
a(Vyou
S'PRP'
tp9042
a(Vup
S'IN'
tp9043
a(Vif
S'IN'
tp9044
a(VI
g9038
tp9045
a(Vfeel
S'VBP'
tp9046
a(Valone
S'RB'
tp9047
aa(lp9048
(VI
S'PRP'
tp9049
a(Vcan
S'MD'
tp9050
a(Vfeed
S'VB'
tp9051
a(Vyour
S'PRP$'
tp9052
a(Vdirty
S'NN'
p9053
tp9054
a(Vmind
g9053
tp9055
aa(lp9056
(VLike
S'IN'
tp9057
a(VI
S'PRP'
p9058
tp9059
a(Vknow
S'VBP'
p9060
tp9061
a(V,
S','
tp9062
a(Vlike
S'IN'
tp9063
a(VI
g9058
tp9064
a(Vknow
g9060
tp9065
a(Vwhat
S'WP'
tp9066
a(Vyou
S'PRP'
tp9067
a(Vwant
g9060
tp9068
aasVLeave a Trace
p9069
(lp9070
(lp9071
(VI
S'PRP'
tp9072
a(Vgave
S'VBD'
tp9073
a(Vup
S'RP'
tp9074
a(Von
S'IN'
tp9075
a(Vtime
S'NN'
tp9076
aa(lp9077
(VJust
S'RB'
tp9078
a(Vlike
S'IN'
tp9079
a(Vyou
S'PRP'
p9080
tp9081
a(Vsaid
S'VBD'
tp9082
a(Vyou
g9080
tp9083
a(Vwould
S'MD'
tp9084
aa(lp9085
(VThere
S'EX'
tp9086
a(Vare
S'VBP'
tp9087
a(Vtiny
S'JJ'
p9088
tp9089
a(Vcracks
S'NNS'
tp9090
a(Vof
S'IN'
tp9091
a(Vlight
g9088
tp9092
a(Vunderneath
S'IN'
tp9093
a(Vme
S'PRP'
tp9094
aa(lp9095
(VAnd
S'CC'
tp9096
a(Vyou
S'PRP'
tp9097
a(Vsay
S'VBP'
tp9098
a(VI
S'PRP'
tp9099
a(Vgot
S'VBD'
tp9100
a(Vit
S'PRP'
tp9101
a(Vwrong
S'JJ'
tp9102
aa(lp9103
(VBut
S'CC'
tp9104
a(VI
S'PRP'
tp9105
a(Vtried
S'VBD'
tp9106
a(Vhard
S'JJ'
tp9107
a(Vto
S'TO'
tp9108
a(Vuncover
S'VB'
tp9109
a(Vthem
S'PRP'
tp9110
aa(lp9111
(VI
S'PRP'
tp9112
a(Vhave
S'VBP'
tp9113
a(Vsomehow
S'VBN'
tp9114
a(Vgot
S'VBD'
tp9115
aa(lp9116
(VAway
S'RB'
tp9117
a(Vwith
S'IN'
tp9118
a(Veverything
S'NN'
tp9119
aa(lp9120
(VAnything
S'NN'
p9121
tp9122
a(Vyou
S'PRP'
tp9123
a(Vever
S'RB'
tp9124
a(Vdid
S'VBD'
tp9125
a(Vwas
S'VBD'
tp9126
a(Vstrictly
S'RB'
tp9127
a(Vby
S'IN'
tp9128
a(Vdesign
g9121
tp9129
aa(lp9130
(VBut
S'CC'
tp9131
a(Vyou
S'PRP'
tp9132
a(Vgot
S'VBD'
tp9133
a(Vit
S'PRP'
tp9134
a(Vwrong
S'JJ'
tp9135
aa(lp9136
(VAnd
S'CC'
tp9137
a(VI
S'PRP'
tp9138
a(V'll
S'MD'
tp9139
a(Vgo
S'VB'
tp9140
a(Vanywhere
S'RB'
p9141
tp9142
a(Vbut
S'CC'
tp9143
a(Vthere
g9141
tp9144
aa(lp9145
(VAnd
S'CC'
tp9146
a(Vyou
S'PRP'
tp9147
a(Vhad
S'VBD'
tp9148
a(Vbest
S'RBS'
tp9149
a(Vbelieve
S'NNS'
tp9150
aa(lp9151
(VThat
S'IN'
tp9152
a(Vyou
S'PRP'
tp9153
a(Vcan
S'MD'
tp9154
a(Vnot
S'RB'
tp9155
a(Vbuild
S'VB'
p9156
tp9157
a(Vwhat
S'WP'
tp9158
a(VI
S'PRP'
tp9159
a(Vdo
S'VBP'
tp9160
a(Vn't
S'RB'
tp9161
a(Vneed
g9156
tp9162
aa(lp9163
(VAnd
S'CC'
tp9164
a(VI
S'PRP'
p9165
tp9166
a(Vknow
S'VBP'
p9167
tp9168
a(VI
g9165
tp9169
a(Vneed
g9167
tp9170
a(Vto
S'TO'
tp9171
a(Vfeel
S'VB'
tp9172
a(Vrelief
S'NN'
tp9173
aa(lp9174
(VAnd
S'CC'
tp9175
a(VI
S'PRP'
tp9176
a(Vknow
S'VBP'
tp9177
a(Vyou
S'PRP'
tp9178
a(V'll
S'MD'
tp9179
a(Vnever
S'RB'
tp9180
a(Vfold
S'VB'
tp9181
aa(lp9182
(VBut
S'CC'
tp9183
a(VI
S'PRP'
p9184
tp9185
a(Vbelieve
S'VBP'
tp9186
a(Vnothing
S'NN'
tp9187
a(Vthat
S'IN'
tp9188
a(VI
g9184
tp9189
a(V'm
S'VBP'
tp9190
a(Vtold
S'JJ'
tp9191
aa(lp9192
(VAnd
S'CC'
tp9193
a(VI
S'PRP'
p9194
tp9195
a(Vknow
S'VBP'
p9196
tp9197
a(VI
g9194
tp9198
a(Vneed
g9196
tp9199
a(Vto
S'TO'
tp9200
a(Vfeel
S'VB'
tp9201
a(Vrelief
S'NN'
tp9202
aa(lp9203
(VI
S'PRP'
p9204
tp9205
a(Vknow
S'VBP'
p9206
tp9207
a(VI
g9204
tp9208
a(Vneed
g9206
tp9209
a(Vto
S'TO'
tp9210
a(Vfeel
S'VB'
tp9211
a(Vreleased
S'VBN'
tp9212
aa(lp9213
(VTake
S'NNP'
tp9214
a(Vcare
S'NN'
tp9215
a(Vto
S'TO'
tp9216
a(Vtell
S'VB'
tp9217
a(Vit
S'PRP'
p9218
tp9219
a(Vjust
S'RB'
tp9220
a(Vhow
S'WRB'
tp9221
a(Vas
S'IN'
tp9222
a(Vit
g9218
tp9223
a(Vwas
S'VBD'
tp9224
aa(lp9225
(VTake
S'NNP'
tp9226
a(Vcare
S'NN'
p9227
tp9228
a(Vto
S'TO'
tp9229
a(Vtell
S'VB'
tp9230
a(Von
S'IN'
tp9231
a(Vme
S'PRP'
tp9232
a(Vfor
S'IN'
tp9233
a(Vthe
S'DT'
tp9234
a(Vcause
g9227
tp9235
aa(lp9236
(VI
S'PRP'
p9237
tp9238
a(Vknow
S'VBP'
p9239
tp9240
a(VI
g9237
tp9241
a(Vneed
g9239
tp9242
a(Vto
S'TO'
tp9243
a(Vfeel
S'VB'
tp9244
a(Vreleased
S'VBN'
tp9245
aa(lp9246
(VTake
S'NNP'
tp9247
a(Vcare
S'NN'
tp9248
a(Vto
S'TO'
tp9249
a(Vbury
S'VB'
tp9250
a(Vall
S'DT'
tp9251
a(Vthat
S'IN'
tp9252
a(Vyou
S'PRP'
tp9253
a(Vcan
S'MD'
tp9254
aa(lp9255
(VTake
S'NNP'
tp9256
a(Vcare
S'NN'
p9257
tp9258
a(Vto
S'TO'
tp9259
a(Vleave
S'VB'
tp9260
a(Va
S'DT'
p9261
tp9262
a(Vtrace
g9257
tp9263
a(Vof
S'IN'
tp9264
a(Va
g9261
tp9265
a(Vman
S'NN'
tp9266
aa(lp9267
(VI
S'PRP'
tp9268
a(Vwill
S'MD'
tp9269
a(Vshow
S'VB'
tp9270
a(Vrestraint
S'NN'
tp9271
aa(lp9272
(VJust
S'RB'
tp9273
a(Vlike
S'IN'
tp9274
a(Vwe
S'PRP'
p9275
tp9276
a(Vsaid
S'VBD'
tp9277
a(Vwe
g9275
tp9278
a(Vshould
S'MD'
tp9279
aa(lp9280
(VYou
S'PRP'
tp9281
a(Vthink
S'VBP'
tp9282
a(VI
S'PRP'
p9283
tp9284
a(V'll
S'MD'
tp9285
a(Vapologize
S'VB'
tp9286
a(Vfor
S'IN'
tp9287
a(Vthings
S'NNS'
tp9288
a(VI
g9283
tp9289
a(Vleft
S'VBD'
tp9290
a(Vbehind
S'RP'
tp9291
aa(lp9292
(VBut
S'CC'
tp9293
a(Vyou
S'PRP'
tp9294
a(Vgot
S'VBD'
tp9295
a(Vit
S'PRP'
tp9296
a(Vwrong
S'JJ'
tp9297
aa(lp9298
(VAnd
S'CC'
tp9299
a(VI
S'PRP'
p9300
tp9301
a(V'm
S'VBP'
tp9302
a(Vas
S'RB'
tp9303
a(Vsane
S'NN'
tp9304
a(Vas
S'IN'
tp9305
a(VI
g9300
tp9306
a(Vever
S'RB'
tp9307
a(Vwas
S'VBD'
tp9308
aa(lp9309
(VYou
S'PRP'
tp9310
a(Vtalk
S'VBP'
tp9311
a(Vfar
S'RB'
tp9312
a(Vtoo
S'RB'
tp9313
a(Vmuch
S'JJ'
tp9314
aa(lp9315
(VFor
S'IN'
tp9316
a(Vsomeone
S'NN'
tp9317
a(Vso
S'RB'
tp9318
a(Vunkind
S'JJ'
tp9319
aa(lp9320
(VI
S'PRP'
tp9321
a(Vwill
S'MD'
tp9322
a(Vwipe
S'VB'
tp9323
a(Vthe
S'DT'
tp9324
a(Vsalt
S'NN'
p9325
tp9326
a(Voff
S'IN'
tp9327
a(Vof
S'IN'
tp9328
a(Vmy
S'PRP$'
tp9329
a(Vskin
g9325
tp9330
aa(lp9331
(VAnd
S'CC'
tp9332
a(VI
S'PRP'
p9333
tp9334
a(V'll
S'MD'
tp9335
a(Vadmit
S'VB'
tp9336
a(Vthat
S'IN'
tp9337
a(VI
g9333
tp9338
a(Vgot
S'VBD'
tp9339
a(Vit
S'PRP'
tp9340
a(Vwrong
S'JJ'
tp9341
aa(lp9342
(VAnd
S'CC'
tp9343
a(Vthere
S'EX'
tp9344
a(Vis
S'VBZ'
tp9345
a(Vgrey
S'NN'
tp9346
a(Vbetween
S'IN'
tp9347
a(Vthe
S'DT'
tp9348
a(Vlines
S'NNS'
tp9349
aa(lp9350
(VAnd
S'CC'
tp9351
a(Vyou
S'PRP'
tp9352
a(Vhad
S'VBD'
tp9353
a(Vbest
S'RBS'
tp9354
a(Vbelieve
S'NNS'
tp9355
aa(lp9356
(VThat
S'IN'
tp9357
a(Vyou
S'PRP'
tp9358
a(Vcan
S'MD'
tp9359
a(Vnot
S'RB'
tp9360
a(Vbuild
S'VB'
p9361
tp9362
a(Vwhat
S'WP'
tp9363
a(VI
S'PRP'
tp9364
a(Vdo
S'VBP'
tp9365
a(Vn't
S'RB'
tp9366
a(Vneed
g9361
tp9367
aa(lp9368
(VAnd
S'CC'
tp9369
a(VI
S'PRP'
p9370
tp9371
a(Vknow
S'VBP'
p9372
tp9373
a(VI
g9370
tp9374
a(Vneed
g9372
tp9375
a(Vto
S'TO'
tp9376
a(Vfeel
S'VB'
tp9377
a(Vrelief
S'NN'
tp9378
aa(lp9379
(VAnd
S'CC'
tp9380
a(VI
S'PRP'
tp9381
a(Vknow
S'VBP'
tp9382
a(Vyou
S'PRP'
tp9383
a(V'll
S'MD'
tp9384
a(Vnever
S'RB'
tp9385
a(Vfold
S'VB'
tp9386
aa(lp9387
(VBut
S'CC'
tp9388
a(VI
S'PRP'
p9389
tp9390
a(Vbelieve
S'VBP'
tp9391
a(Vnothing
S'NN'
tp9392
a(Vthat
S'IN'
tp9393
a(VI
g9389
tp9394
a(V'm
S'VBP'
tp9395
a(Vtold
S'JJ'
tp9396
aa(lp9397
(VAnd
S'CC'
tp9398
a(VI
S'PRP'
p9399
tp9400
a(Vknow
S'VBP'
p9401
tp9402
a(VI
g9399
tp9403
a(Vneed
g9401
tp9404
a(Vto
S'TO'
tp9405
a(Vfeel
S'VB'
tp9406
a(Vrelief
S'NN'
tp9407
aa(lp9408
(VI
S'PRP'
p9409
tp9410
a(Vknow
S'VBP'
p9411
tp9412
a(VI
g9409
tp9413
a(Vneed
g9411
tp9414
a(Vto
S'TO'
tp9415
a(Vfeel
S'VB'
tp9416
a(Vreleased
S'VBN'
tp9417
aa(lp9418
(VTake
S'NNP'
tp9419
a(Vcare
S'NN'
tp9420
a(Vto
S'TO'
tp9421
a(Vtell
S'VB'
tp9422
a(Vit
S'PRP'
p9423
tp9424
a(Vjust
S'RB'
tp9425
a(Vhow
S'WRB'
tp9426
a(Vas
S'IN'
tp9427
a(Vit
g9423
tp9428
a(Vwas
S'VBD'
tp9429
aa(lp9430
(VTake
S'NNP'
tp9431
a(Vcare
S'NN'
p9432
tp9433
a(Vto
S'TO'
tp9434
a(Vtell
S'VB'
tp9435
a(Von
S'IN'
tp9436
a(Vme
S'PRP'
tp9437
a(Vfor
S'IN'
tp9438
a(Vthe
S'DT'
tp9439
a(Vcause
g9432
tp9440
aa(lp9441
(VI
S'PRP'
p9442
tp9443
a(Vknow
S'VBP'
p9444
tp9445
a(VI
g9442
tp9446
a(Vneed
g9444
tp9447
a(Vto
S'TO'
tp9448
a(Vfeel
S'VB'
tp9449
a(Vreleased
S'VBN'
tp9450
aa(lp9451
(VTake
S'NNP'
tp9452
a(Vcare
S'NN'
tp9453
a(Vto
S'TO'
tp9454
a(Vbury
S'VB'
tp9455
a(Vall
S'DT'
tp9456
a(Vthat
S'IN'
tp9457
a(Vyou
S'PRP'
tp9458
a(Vcan
S'MD'
tp9459
aa(lp9460
(VTake
S'NNP'
tp9461
a(Vcare
S'NN'
p9462
tp9463
a(Vto
S'TO'
tp9464
a(Vleave
S'VB'
tp9465
a(Va
S'DT'
p9466
tp9467
a(Vtrace
g9462
tp9468
a(Vof
S'IN'
tp9469
a(Va
g9466
tp9470
a(Vman
S'NN'
tp9471
aa(lp9472
(VI
S'PRP'
p9473
tp9474
a(Vknow
S'VBP'
p9475
tp9476
a(V,
S','
tp9477
a(VI
g9473
tp9478
a(Vknow
g9475
tp9479
a(V,
S','
tp9480
a(VI
g9473
tp9481
a(Vknow
g9475
tp9482
a(V,
S','
tp9483
a(VI
g9473
tp9484
a(Vknow
g9475
tp9485
aa(lp9486
(VI
S'PRP'
p9487
tp9488
a(Vknow
S'VBP'
p9489
tp9490
a(V,
S','
tp9491
a(VI
g9487
tp9492
a(Vknow
g9489
tp9493
a(V,
S','
tp9494
a(VI
g9487
tp9495
a(Vknow
g9489
tp9496
a(V,
S','
tp9497
a(VI
g9487
tp9498
a(Vknow
g9489
tp9499
aa(lp9500
(VI
S'PRP'
p9501
tp9502
a(Vknow
S'VBP'
p9503
tp9504
a(VI
g9501
tp9505
a(Vneed
g9503
tp9506
a(Vto
S'TO'
tp9507
a(Vfeel
S'VB'
tp9508
a(Vreleased
S'VBN'
tp9509
aa(lp9510
(VTake
S'NNP'
tp9511
a(Vcare
S'NN'
tp9512
a(Vto
S'TO'
tp9513
a(Vtell
S'VB'
tp9514
a(Vit
S'PRP'
p9515
tp9516
a(Vjust
S'RB'
tp9517
a(Vhow
S'WRB'
tp9518
a(Vas
S'IN'
tp9519
a(Vit
g9515
tp9520
a(Vwas
S'VBD'
tp9521
aa(lp9522
(VTake
S'NNP'
tp9523
a(Vcare
S'NN'
p9524
tp9525
a(Vto
S'TO'
tp9526
a(Vtell
S'VB'
tp9527
a(Von
S'IN'
tp9528
a(Vme
S'PRP'
tp9529
a(Vfor
S'IN'
tp9530
a(Vthe
S'DT'
tp9531
a(Vcause
g9524
tp9532
aa(lp9533
(VI
S'PRP'
p9534
tp9535
a(Vknow
S'VBP'
p9536
tp9537
a(VI
g9534
tp9538
a(Vneed
g9536
tp9539
a(Vto
S'TO'
tp9540
a(Vfeel
S'VB'
tp9541
a(Vreleased
S'VBN'
tp9542
aa(lp9543
(VTake
S'NNP'
tp9544
a(Vcare
S'NN'
tp9545
a(Vto
S'TO'
tp9546
a(Vbury
S'VB'
tp9547
a(Vall
S'DT'
tp9548
a(Vthat
S'IN'
tp9549
a(Vyou
S'PRP'
tp9550
a(Vcan
S'MD'
tp9551
aa(lp9552
(VTake
S'NNP'
tp9553
a(Vcare
S'NN'
p9554
tp9555
a(Vto
S'TO'
tp9556
a(Vleave
S'VB'
tp9557
a(Va
S'DT'
p9558
tp9559
a(Vtrace
g9554
tp9560
a(Vof
S'IN'
tp9561
a(Va
g9558
tp9562
a(Vman
S'NN'
tp9563
aa(lp9564
(VI
S'PRP'
p9565
tp9566
a(Vknow
S'VBP'
p9567
tp9568
a(V,
S','
tp9569
a(VI
g9565
tp9570
a(Vknow
g9567
tp9571
a(V,
S','
tp9572
a(VI
g9565
tp9573
a(Vknow
g9567
tp9574
a(V,
S','
tp9575
a(VI
g9565
tp9576
a(Vknow
g9567
tp9577
aa(lp9578
(VI
S'PRP'
p9579
tp9580
a(Vknow
S'VBP'
p9581
tp9582
a(V,
S','
tp9583
a(VI
g9579
tp9584
a(Vknow
g9581
tp9585
a(V,
S','
tp9586
a(VI
g9579
tp9587
a(Vknow
g9581
tp9588
a(V,
S','
tp9589
a(VI
g9579
tp9590
a(Vknow
g9581
tp9591
aasVWe Sink
p9592
(lp9593
(lp9594
(VMia
S'NNP'
tp9595
a(V,
S','
tp9596
a(VI
S'PRP'
tp9597
a(V've
S'VBP'
tp9598
a(Vcome
S'VBN'
tp9599
a(Vapart
S'RB'
tp9600
a(Vand
S'CC'
tp9601
a(Vyou
S'PRP'
tp9602
a(Vmade
S'VBD'
tp9603
a(Vme
S'PRP'
tp9604
aa(lp9605
(VFloat
S'NNP'
tp9606
a(Vlike
S'IN'
tp9607
a(Va
S'DT'
tp9608
a(Vpretty
S'JJ'
tp9609
a(Vbox
S'NN'
p9610
tp9611
a(Vof
S'IN'
tp9612
a(Vyour
S'PRP$'
tp9613
a(Vevil
g9610
tp9614
aa(lp9615
(VSo
S'RB'
tp9616
a(Vtired
S'JJ'
p9617
tp9618
a(V,
S','
tp9619
a(Vso
S'IN'
tp9620
a(Veasy
g9617
tp9621
a(VI
S'PRP'
tp9622
aa(lp9623
(VBleed
S'VBN'
tp9624
a(Vout
S'RP'
tp9625
a(V,
S','
tp9626
a(Vwhat
S'WP'
tp9627
a(Vthe
S'DT'
tp9628
a(Vfuck
S'NN'
tp9629
a(Vwere
S'VBD'
tp9630
a(Vyou
S'PRP'
tp9631
a(Vthinking
S'VBG'
tp9632
a(V?
S'.'
tp9633
aa(lp9634
(VWe
S'PRP'
tp9635
a(Vare
S'VBP'
tp9636
a(Vgon
S'VBG'
tp9637
a(Vna
S'TO'
tp9638
a(Vfall
S'VB'
tp9639
a(Vif
S'IN'
tp9640
a(Vyou
S'PRP'
tp9641
a(Vlead
S'VBP'
tp9642
a(Vus
S'PRP'
tp9643
aa(lp9644
(VNowhere
S'RB'
tp9645
a(V,
S','
tp9646
a(Vno
S'DT'
tp9647
a(Vwasted
S'JJ'
tp9648
a(Vtime
S'NN'
tp9649
aa(lp9650
(VI
S'PRP'
tp9651
a(V'll
S'MD'
tp9652
a(Vbe
S'VB'
tp9653
a(Va
S'DT'
tp9654
a(Vthorn
S'JJ'
tp9655
a(Vin
S'IN'
tp9656
a(Vyour
S'PRP$'
tp9657
a(Vside
S'NN'
p9658
tp9659
a(V,
S','
tp9660
a(Vtill
g9658
tp9661
a(Vyou
S'PRP'
tp9662
a(Vdie
S'VBP'
tp9663
aa(lp9664
(VI
S'PRP'
tp9665
a(V'll
S'MD'
tp9666
a(Vbe
S'VB'
tp9667
a(Va
S'DT'
tp9668
a(Vthorn
S'JJ'
tp9669
a(Vin
S'IN'
tp9670
a(Vyour
S'PRP$'
tp9671
a(Vside
S'NN'
tp9672
a(V,
S','
tp9673
a(Vfor
S'IN'
tp9674
a(Valways
S'RB'
tp9675
aa(lp9676
(VIf
S'IN'
tp9677
a(Vwe
S'PRP'
p9678
tp9679
a(Vsink
S'VBP'
p9680
tp9681
a(V,
S','
tp9682
a(Vwe
g9678
tp9683
a(Vlift
g9680
tp9684
a(Vour
S'PRP$'
tp9685
a(Vlove
S'NN'
tp9686
aa(lp9687
(VI
S'PRP'
tp9688
a(V'll
S'MD'
tp9689
a(Vbe
S'VB'
tp9690
a(Va
S'DT'
tp9691
a(Vthorn
S'JJ'
tp9692
a(Vin
S'IN'
tp9693
a(Vyour
S'PRP$'
tp9694
a(Vside
S'NN'
p9695
tp9696
a(V,
S','
tp9697
a(Vtill
g9695
tp9698
a(Vyou
S'PRP'
tp9699
a(Vdie
S'VBP'
tp9700
aa(lp9701
(VI
S'PRP'
tp9702
a(V'll
S'MD'
tp9703
a(Vbe
S'VB'
tp9704
a(Va
S'DT'
tp9705
a(Vthorn
S'JJ'
tp9706
a(Vin
S'IN'
tp9707
a(Vyour
S'PRP$'
tp9708
a(Vside
S'NN'
tp9709
a(V,
S','
tp9710
a(Vfor
S'IN'
tp9711
a(Valways
S'RB'
tp9712
aa(lp9713
(VIf
S'IN'
tp9714
a(Vwe
S'PRP'
p9715
tp9716
a(Vsink
S'VBP'
p9717
tp9718
a(V,
S','
tp9719
a(Vwe
g9715
tp9720
a(Vlift
g9717
tp9721
a(Vour
S'PRP$'
tp9722
a(Vlove
S'NN'
tp9723
aa(lp9724
(VMia
S'NNP'
tp9725
a(V,
S','
tp9726
a(Vlet
S'VB'
p9727
tp9728
a(Vme
S'PRP'
tp9729
a(Vstop
g9727
tp9730
a(Vfor
S'IN'
tp9731
a(Va
S'DT'
tp9732
a(Vsecond
S'JJ'
tp9733
aa(lp9734
(VA
S'DT'
tp9735
a(Vheld
S'JJ'
tp9736
a(Vheart
S'NN'
tp9737
a(V,
S','
tp9738
a(Vthat
S'IN'
tp9739
a(Vonly
S'RB'
tp9740
a(Vbeats
S'VBZ'
tp9741
a(Vin
S'IN'
tp9742
a(Vthe
S'DT'
tp9743
a(Vevening
S'NN'
tp9744
aa(lp9745
(VLow
S'JJ'
tp9746
a(Vtide
S'NN'
p9747
tp9748
a(V,
S','
tp9749
a(Vwatch
g9747
tp9750
a(Vin
S'IN'
tp9751
a(Vfull
S'JJ'
tp9752
a(Vflight
S'NN'
tp9753
aa(lp9754
(VI
S'PRP'
tp9755
a(Vtell
S'VBP'
tp9756
a(Vyou
S'PRP'
p9757
tp9758
a(Vto
S'TO'
tp9759
a(Vcut
S'VB'
tp9760
a(Vit
S'PRP'
tp9761
a(Vout
S'RP'
tp9762
a(Vif
S'IN'
tp9763
a(Vyou
g9757
tp9764
a(Vmade
S'VBD'
tp9765
a(Vme
S'PRP'
tp9766
aa(lp9767
(VYou
S'PRP'
tp9768
a(Vknow
S'VBP'
tp9769
a(Vwhy
S'WRB'
tp9770
a(V,
S','
tp9771
a(Vthe
S'DT'
tp9772
a(Vslowest
S'JJS'
tp9773
a(Vspark
S'NN'
p9774
tp9775
a(Vis
S'VBZ'
tp9776
a(Va
S'DT'
tp9777
a(Vbreather
g9774
tp9778
aa(lp9779
(VHow
S'WRB'
p9780
tp9781
a(Vhigh
S'JJ'
tp9782
a(V?
S'.'
tp9783
a(VHow
g9780
tp9784
a(Vwill
S'MD'
tp9785
a(Vyou
S'PRP'
tp9786
a(Vdecide
S'VB'
tp9787
a(V?
S'.'
tp9788
aa(lp9789
(VI
S'PRP'
tp9790
a(V'll
S'MD'
tp9791
a(Vbe
S'VB'
tp9792
a(Va
S'DT'
tp9793
a(Vthorn
S'JJ'
tp9794
a(Vin
S'IN'
tp9795
a(Vyour
S'PRP$'
tp9796
a(Vside
S'NN'
p9797
tp9798
a(V,
S','
tp9799
a(Vtill
g9797
tp9800
a(Vyou
S'PRP'
tp9801
a(Vdie
S'VBP'
tp9802
aa(lp9803
(VI
S'PRP'
tp9804
a(V'll
S'MD'
tp9805
a(Vbe
S'VB'
tp9806
a(Va
S'DT'
tp9807
a(Vthorn
S'JJ'
tp9808
a(Vin
S'IN'
tp9809
a(Vyour
S'PRP$'
tp9810
a(Vside
S'NN'
tp9811
a(V,
S','
tp9812
a(Vfor
S'IN'
tp9813
a(Valways
S'RB'
tp9814
aa(lp9815
(VIf
S'IN'
tp9816
a(Vwe
S'PRP'
p9817
tp9818
a(Vsink
S'VBP'
p9819
tp9820
a(V,
S','
tp9821
a(Vwe
g9817
tp9822
a(Vlift
g9819
tp9823
a(Vour
S'PRP$'
tp9824
a(Vlove
S'NN'
tp9825
aa(lp9826
(VI
S'PRP'
tp9827
a(V'll
S'MD'
tp9828
a(Vbe
S'VB'
tp9829
a(Va
S'DT'
tp9830
a(Vthorn
S'JJ'
tp9831
a(Vin
S'IN'
tp9832
a(Vyour
S'PRP$'
tp9833
a(Vside
S'NN'
p9834
tp9835
a(V,
S','
tp9836
a(Vtill
g9834
tp9837
a(Vyou
S'PRP'
tp9838
a(Vdie
S'VBP'
tp9839
aa(lp9840
(VI
S'PRP'
tp9841
a(V'll
S'MD'
tp9842
a(Vbe
S'VB'
tp9843
a(Va
S'DT'
tp9844
a(Vthorn
S'JJ'
tp9845
a(Vin
S'IN'
tp9846
a(Vyour
S'PRP$'
tp9847
a(Vside
S'NN'
tp9848
a(V,
S','
tp9849
a(Vfor
S'IN'
tp9850
a(Valways
S'RB'
tp9851
aa(lp9852
(VIf
S'IN'
tp9853
a(Vwe
S'PRP'
p9854
tp9855
a(Vsink
S'VBP'
p9856
tp9857
a(V,
S','
tp9858
a(Vwe
g9854
tp9859
a(Vlift
g9856
tp9860
a(Vour
S'PRP$'
tp9861
a(Vlove
S'NN'
tp9862
aa(lp9863
(VSome
S'DT'
tp9864
a(Vmoan
S'NN'
tp9865
aa(lp9866
(VYouth
S'NNP'
tp9867
a(Vkeep
S'VB'
tp9868
a(Vstalling
S'NN'
tp9869
aa(lp9870
(VCan
S'MD'
tp9871
a(Vyou
S'PRP'
tp9872
a(Vnot
S'RB'
tp9873
a(Vsee
S'VB'
tp9874
a(Vwhy
S'WRB'
tp9875
a(V?
S'.'
tp9876
aa(lp9877
(VLoved
S'VBN'
tp9878
a(Vones
S'NNS'
tp9879
a(Vthat
S'IN'
tp9880
a(Vyou
S'PRP'
tp9881
a(V've
S'VBP'
tp9882
a(Vseen
S'VBN'
tp9883
a(Vcry
S'NN'
tp9884
aa(lp9885
(VA
S'DT'
tp9886
a(Vsimple
S'JJ'
p9887
tp9888
a(Vcall
S'NN'
tp9889
a(Vseems
S'VBZ'
tp9890
a(Vright
g9887
tp9891
aa(lp9892
(VAnd
S'CC'
tp9893
a(VI
S'PRP'
tp9894
a(Vknow
S'VBP'
tp9895
a(Vwhy
S'WRB'
tp9896
aa(lp9897
(VI
S'PRP'
tp9898
a(V'll
S'MD'
tp9899
a(Vbe
S'VB'
tp9900
a(Va
S'DT'
tp9901
a(Vthorn
S'JJ'
tp9902
a(Vin
S'IN'
tp9903
a(Vyour
S'PRP$'
tp9904
a(Vside
S'NN'
p9905
tp9906
a(V,
S','
tp9907
a(Vtill
g9905
tp9908
a(Vyou
S'PRP'
tp9909
a(Vdie
S'VBP'
tp9910
aa(lp9911
(VI
S'PRP'
tp9912
a(V'll
S'MD'
tp9913
a(Vbe
S'VB'
tp9914
a(Va
S'DT'
tp9915
a(Vthorn
S'JJ'
tp9916
a(Vin
S'IN'
tp9917
a(Vyour
S'PRP$'
tp9918
a(Vside
S'NN'
tp9919
a(V,
S','
tp9920
a(Vfor
S'IN'
tp9921
a(Valways
S'RB'
tp9922
aa(lp9923
(VIf
S'IN'
tp9924
a(Vwe
S'PRP'
p9925
tp9926
a(Vsink
S'VBP'
p9927
tp9928
a(V,
S','
tp9929
a(Vwe
g9925
tp9930
a(Vlift
g9927
tp9931
a(Vour
S'PRP$'
tp9932
a(Vlives
S'NNS'
tp9933
aa(lp9934
(VI
S'PRP'
tp9935
a(V'll
S'MD'
tp9936
a(Vbe
S'VB'
tp9937
a(Va
S'DT'
tp9938
a(Vthorn
S'JJ'
tp9939
a(Vin
S'IN'
tp9940
a(Vyour
S'PRP$'
tp9941
a(Vside
S'NN'
p9942
tp9943
a(V,
S','
tp9944
a(Vtill
g9942
tp9945
a(Vyou
S'PRP'
tp9946
a(Vdie
S'VBP'
tp9947
aa(lp9948
(VI
S'PRP'
tp9949
a(V'll
S'MD'
tp9950
a(Vbe
S'VB'
tp9951
a(Va
S'DT'
tp9952
a(Vthorn
S'JJ'
tp9953
a(Vin
S'IN'
tp9954
a(Vyour
S'PRP$'
tp9955
a(Vside
S'NN'
tp9956
a(V,
S','
tp9957
a(Vfor
S'IN'
tp9958
a(Valways
S'RB'
tp9959
aa(lp9960
(VIf
S'IN'
tp9961
a(Vwe
S'PRP'
p9962
tp9963
a(Vsink
S'VBP'
p9964
tp9965
a(V,
S','
tp9966
a(Vwe
g9962
tp9967
a(Vlift
g9964
tp9968
a(Vour
S'PRP$'
tp9969
a(Vlove
S'NN'
tp9970
aasVNight Sky
p9971
(lp9972
(lp9973
(VI
S'PRP'
tp9974
a(Vwill
S'MD'
tp9975
a(Vcarry
S'VB'
p9976
tp9977
a(Vand
S'CC'
tp9978
a(Vgive
g9976
tp9979
a(Vyou
S'PRP'
tp9980
a(Vlife
S'NN'
tp9981
aa(lp9982
(VI
S'PRP'
tp9983
a(Vwill
S'MD'
tp9984
a(Vcover
S'VB'
p9985
tp9986
a(Vyou
S'PRP'
p9987
tp9988
a(Vand
S'CC'
tp9989
a(Vshow
g9985
tp9990
a(Vyou
g9987
tp9991
a(Vthe
S'DT'
tp9992
a(Vway
S'NN'
tp9993
aa(lp9994
(VIt
S'PRP'
tp9995
a(V's
S'VBZ'
tp9996
a(Va
S'DT'
tp9997
a(Vsequence
S'NN'
tp9998
a(Vthat
S'IN'
tp9999
a(Vyou
S'PRP'
tp10000
a(Vnever
S'RB'
tp10001
a(Vlearned
S'VBD'
tp10002
aa(lp10003
(VIt
S'PRP'
tp10004
a(V's
S'VBZ'
tp10005
a(Va
S'DT'
tp10006
a(Vlesson
S'NN'
tp10007
a(VI
S'PRP'
tp10008
a(Vwill
S'MD'
tp10009
a(Vnever
S'RB'
tp10010
a(Vforget
S'VB'
tp10011
aa(lp10012
(VI
S'PRP'
tp10013
a(Vcan
S'MD'
tp10014
a(Vhear
S'VB'
tp10015
a(Vyou
S'PRP'
tp10016
a(Vin
S'IN'
tp10017
a(Vthe
S'DT'
tp10018
a(Vovertones
S'NNS'
tp10019
aa(lp10020
(VJust
S'RB'
tp10021
a(Van
S'DT'
tp10022
a(Vecho
S'NN'
p10023
tp10024
a(Vof
S'IN'
tp10025
a(Vthe
S'DT'
tp10026
a(Vpromise
g10023
tp10027
a(Vwe
S'PRP'
tp10028
a(Vmade
S'VBD'
tp10029
aa(lp10030
(VChange
S'VB'
p10031
tp10032
a(Vthe
S'DT'
tp10033
a(Vfuture
S'NN'
tp10034
a(V,
S','
tp10035
a(Vwe
S'PRP'
tp10036
a(Vcan
S'MD'
tp10037
a(Vtravel
g10031
tp10038
a(Vtime
S'NN'
tp10039
aa(lp10040
(VOr
S'CC'
tp10041
a(Vmake
S'VB'
p10042
tp10043
a(Vus
S'PRP'
tp10044
a(Vblind
g10042
tp10045
a(Vso
S'IN'
tp10046
a(Vwe
S'PRP'
tp10047
a(Vcan
S'MD'
tp10048
a(Vnever
S'RB'
tp10049
a(Vlook
g10042
tp10050
a(Vback
S'RP'
tp10051
aa(lp10052
(VWe
S'PRP'
tp10053
a(Vcan
S'MD'
tp10054
a(Vnever
S'RB'
tp10055
a(Vlook
S'VB'
tp10056
a(Vback
S'RP'
tp10057
aa(lp10058
(VI
S'PRP'
tp10059
a(V'm
S'VBP'
tp10060
a(Vthe
S'DT'
tp10061
a(Vnight-sky
S'JJ'
tp10062
aa(lp10063
(VI
S'PRP'
tp10064
a(V'm
S'VBP'
tp10065
a(Vthe
S'DT'
tp10066
a(Vfire
S'NN'
tp10067
a(Vin
S'IN'
tp10068
a(Vyour
S'PRP$'
tp10069
a(Veyes
S'NNS'
tp10070
aa(lp10071
(VAnd
S'CC'
tp10072
a(VI
S'PRP'
tp10073
a(Vwant
S'VBP'
tp10074
a(Vyou
S'PRP'
tp10075
aa(lp10076
(VNow
S'RB'
tp10077
a(Vand
S'CC'
tp10078
a(Vfor
S'IN'
tp10079
a(Vall
S'DT'
tp10080
a(Vtime
S'NN'
tp10081
aa(lp10082
(VI
S'PRP'
tp10083
a(V'm
S'VBP'
tp10084
a(Vthe
S'DT'
tp10085
a(Vcold
S'JJ'
tp10086
a(Vheart
S'NN'
tp10087
aa(lp10088
(VI
S'PRP'
tp10089
a(V'm
S'VBP'
tp10090
a(Vthe
S'DT'
tp10091
a(Vsecret
S'NN'
tp10092
a(Vthat
S'IN'
tp10093
a(Vyou
S'PRP'
tp10094
a(Vhide
S'VBP'
tp10095
aa(lp10096
(VI
S'PRP'
tp10097
a(V'll
S'MD'
tp10098
a(Vbe
S'VB'
tp10099
a(Vlistening
S'VBG'
tp10100
a(Vuntil
S'IN'
tp10101
a(Vyou
S'PRP'
tp10102
a(Vdecide
S'VBP'
tp10103
aa(lp10104
(VI
S'PRP'
tp10105
a(Vcommunicate
S'VBP'
tp10106
a(Vin
S'IN'
tp10107
a(Vsimple
S'JJ'
tp10108
a(Vstrings
S'NNS'
tp10109
a(V(
S'('
tp10110
a(Vtake
S'VB'
tp10111
a(Vyour
S'PRP$'
tp10112
a(Vtime
S'NN'
tp10113
a(V)
S')'
tp10114
aa(lp10115
(VI
S'PRP'
tp10116
a(V'm
S'VBP'
tp10117
a(Vthe
S'DT'
p10118
tp10119
a(Vonly
S'JJ'
tp10120
a(Vone
S'NN'
p10121
tp10122
a(Vwho
S'WP'
tp10123
a(Vgave
S'VBD'
tp10124
a(Vyou
S'PRP'
tp10125
a(Vthe
g10118
tp10126
a(Vtruth
g10121
tp10127
a(V(
S'('
tp10128
a(Vspeak
g10121
tp10129
a(Vto
S'TO'
tp10130
a(Vme
S'PRP'
tp10131
a(V)
S')'
tp10132
aa(lp10133
(VOnce
S'RB'
tp10134
a(Vyou
S'PRP'
p10135
tp10136
a(Vleave
S'VBP'
tp10137
a(Vme
S'PRP'
tp10138
a(Vyou
g10135
tp10139
a(Vwere
S'VBD'
tp10140
a(Vreally
S'RB'
tp10141
a(Vgone
S'VBN'
tp10142
a(V(
S'('
tp10143
a(Vfar
S'RB'
tp10144
a(Vand
S'CC'
tp10145
a(Vnear
S'IN'
tp10146
a(V)
S')'
tp10147
aa(lp10148
(VGive
S'VB'
p10149
tp10150
a(Vme
S'PRP'
tp10151
a(Vsomething
S'NN'
tp10152
a(Vto
S'TO'
tp10153
a(Vremember
g10149
tp10154
a(Vyou
S'PRP'
tp10155
a(Vby
S'IN'
tp10156
a(V(
S'('
tp10157
a(Valways
S'RB'
tp10158
a(Vbe
S'VB'
tp10159
a(V)
S')'
tp10160
aa(lp10161
(VAll
S'DT'
p10162
tp10163
a(Vthat
g10162
tp10164
a(V's
S'VBZ'
tp10165
a(Vhere
S'RB'
tp10166
a(Vis
S'VBZ'
tp10167
a(Vwhat
S'WP'
tp10168
a(Vyou
S'PRP'
tp10169
a(Vleft
S'VBD'
tp10170
a(Vbehind
S'RP'
tp10171
a(V(
S'('
tp10172
a(Vmajesty
S'NN'
tp10173
a(V)
S')'
tp10174
aa(lp10175
(VSlowly
S'RB'
tp10176
a(Vmoving
S'VBG'
tp10177
a(Vin
S'IN'
tp10178
a(Vthe
S'DT'
tp10179
a(Vback
S'NN'
p10180
tp10181
a(Vof
S'IN'
tp10182
a(Vmy
S'PRP$'
tp10183
a(Vmind
g10180
tp10184
a(V(
S'('
tp10185
a(Vca
S'MD'
tp10186
a(Vn't
S'RB'
tp10187
a(Vforget
S'VB'
tp10188
a(V)
S')'
tp10189
aa(lp10190
(VTake
S'VB'
p10191
tp10192
a(Va
S'DT'
tp10193
a(Vmoment
S'NN'
tp10194
a(Vto
S'TO'
tp10195
a(Vremember
g10191
tp10196
a(Vme
S'PRP'
tp10197
a(V(
S'('
tp10198
a(Vand
S'CC'
tp10199
a(Vour
S'PRP$'
tp10200
a(Vways
S'NNS'
tp10201
a(V)
S')'
tp10202
aa(lp10203
(VMake
S'VB'
p10204
tp10205
a(Vme
S'PRP'
tp10206
a(Vblind
S'IN'
p10207
tp10208
a(Vso
g10207
tp10209
a(VI
S'PRP'
tp10210
a(Vdo
S'VBP'
tp10211
a(Vn't
S'RB'
tp10212
a(Vever
S'RB'
tp10213
a(Vlook
g10204
tp10214
a(Vback
S'RP'
tp10215
aa(lp10216
(VOnly
S'RB'
tp10217
a(Vin
S'IN'
tp10218
a(Vyour
S'PRP$'
tp10219
a(Vname
S'NN'
tp10220
aa(lp10221
(VI
S'PRP'
tp10222
a(Vwill
S'MD'
tp10223
a(Vne'er
S'RB'
tp10224
a(Vbe
S'VB'
tp10225
a(Vfree
S'JJ'
tp10226
aa(lp10227
(Vx2
S'NN'
tp10228
aasVTether
p10229
(lp10230
(lp10231
(VWhere
S'WRB'
tp10232
a(V'd
S'MD'
tp10233
a(Vyou
S'PRP'
p10234
tp10235
a(Vgo
S'VB'
tp10236
a(V,
S','
tp10237
a(Vyou
g10234
tp10238
a(Vwere
S'VBD'
tp10239
a(Vthere
S'RB'
tp10240
a(Vby
S'IN'
tp10241
a(Vmy
S'PRP$'
tp10242
a(Vside
S'NN'
tp10243
aa(lp10244
(VKeep
S'VB'
p10245
tp10246
a(Vbelieving
S'VBG'
tp10247
a(Vit
S'PRP'
tp10248
a(V's
S'VBZ'
tp10249
a(Vmy
S'PRP$'
tp10250
a(Vturn
S'NN'
tp10251
a(Vto
S'TO'
tp10252
a(Vhide
g10245
tp10253
aa(lp10254
(VIn
S'IN'
tp10255
a(Va
S'DT'
p10256
tp10257
a(Vplace
S'NN'
p10258
tp10259
a(Vwhere
S'WRB'
tp10260
a(Vwe
S'PRP'
tp10261
a(Vdo
S'VBP'
tp10262
a(Vn't
S'RB'
tp10263
a(Vhave
S'VB'
tp10264
a(Va
g10256
tp10265
a(Vprayer
g10258
tp10266
aa(lp10267
(VThere
S'EX'
tp10268
a(V's
S'VBZ'
p10269
tp10270
a(Va
S'DT'
tp10271
a(Vtether
S'NN'
tp10272
a(Vthat
S'WDT'
tp10273
a(V's
g10269
tp10274
a(Vkeeping
S'VBG'
tp10275
a(Vme
S'PRP'
tp10276
a(Vthere
S'EX'
tp10277
aa(lp10278
(VTrade
S'NNP'
tp10279
a(Vour
S'PRP$'
tp10280
a(Vplaces
S'NNS'
tp10281
aa(lp10282
(VTake
S'VB'
tp10283
a(Vno
S'DT'
tp10284
a(Vchances
S'NNS'
tp10285
aa(lp10286
(VFind
S'IN'
tp10287
a(Vme
S'PRP'
tp10288
a(V'til
S'VB'
tp10289
a(Vmy
S'PRP$'
tp10290
a(Vlips
S'NNS'
tp10291
a(Vare
S'VBP'
tp10292
a(Vsilent
S'JJ'
tp10293
aa(lp10294
(VStay
S'VB'
tp10295
a(Vwhere
S'WRB'
tp10296
a(Vyou
S'PRP'
tp10297
a(Vare
S'VBP'
tp10298
aa(lp10299
(VEver
S'RB'
tp10300
a(V,
S','
tp10301
a(Vafter
S'IN'
tp10302
aa(lp10303
(VChasing
S'VBG'
tp10304
a(Vthings
S'NNS'
tp10305
a(Vthat
S'IN'
tp10306
a(Vwe
S'PRP'
tp10307
a(Vshould
S'MD'
tp10308
a(Vrun
S'VB'
tp10309
a(Vfrom
S'IN'
tp10310
aa(lp10311
(VWill
S'MD'
tp10312
a(Vwe
S'PRP'
tp10313
a(Vever
S'RB'
tp10314
a(Vget
S'VB'
tp10315
a(Vaway
S'RB'
tp10316
a(Vfrom
S'IN'
tp10317
a(Vthis
S'DT'
tp10318
a(Vplace
S'NN'
tp10319
aa(lp10320
(VIt
S'PRP'
tp10321
a(V's
S'VBZ'
p10322
tp10323
a(Van
S'DT'
tp10324
a(Vimage
S'NN'
tp10325
a(Vthat
S'WDT'
tp10326
a(V's
g10322
tp10327
a(Vburned
S'VBN'
tp10328
a(Von
S'IN'
tp10329
a(Vmy
S'PRP$'
tp10330
a(Vchest
S'NN'
tp10331
aa(lp10332
(VFor
S'IN'
tp10333
a(Va
S'DT'
tp10334
a(Vmoment
S'NN'
tp10335
a(Vyou
S'PRP'
tp10336
a(Vneed
S'VBP'
tp10337
a(Vme
S'PRP'
tp10338
a(Vto
S'TO'
tp10339
a(Vstay
S'VB'
tp10340
aa(lp10341
(VCold
S'NNP'
tp10342
a(Vblooded
S'VBD'
tp10343
a(Vand
S'CC'
tp10344
a(Vdrifting
S'VBG'
tp10345
a(Vaway
S'RB'
tp10346
aa(lp10347
(VI
S'PRP'
tp10348
a(V'm
S'VBP'
tp10349
a(Vfeeling
S'VBG'
tp10350
a(Vcapable
S'NN'
tp10351
a(Vof
S'IN'
tp10352
aa(lp10353
(VSeeing
S'VBG'
tp10354
a(Vthe
S'DT'
tp10355
a(Vend
S'NN'
tp10356
aa(lp10357
(VI
S'PRP'
tp10358
a(V'm
S'VBP'
tp10359
a(Vfeeling
S'VBG'
tp10360
a(Vcapable
S'NN'
tp10361
a(Vof
S'IN'
tp10362
aa(lp10363
(VSaying
S'VBG'
tp10364
a(Vit
S'PRP'
tp10365
a(V's
S'VBZ'
tp10366
a(Vover
S'RP'
tp10367
aasVUnder the Tide
p10368
(lp10369
(lp10370
(VI
S'PRP'
tp10371
a(V'm
S'VBP'
tp10372
a(Vwatching
S'VBG'
tp10373
a(Vyou
S'PRP'
tp10374
a(Vrun
S'VBP'
p10375
tp10376
a(V,
S','
tp10377
a(Vrun
g10375
tp10378
a(Vfrom
S'IN'
tp10379
a(Vthe
S'DT'
tp10380
a(Vsidelines
S'NNS'
tp10381
aa(lp10382
(VTake
S'VB'
tp10383
a(Vin
S'IN'
p10384
tp10385
a(Va
S'DT'
tp10386
a(Vbreath
S'NN'
p10387
tp10388
a(V,
S','
tp10389
a(Vfill
g10387
tp10390
a(Vin
g10384
tp10391
a(Vyour
S'PRP$'
tp10392
a(Vlungs
S'NNS'
tp10393
a(V,
S','
tp10394
a(Vkeeping
S'VBG'
tp10395
a(Vyou
S'PRP'
tp10396
a(Valive
S'VBP'
tp10397
aa(lp10398
(VNo
S'DT'
tp10399
a(Vfear
S'NN'
p10400
tp10401
a(V,
S','
tp10402
a(VI
S'PRP'
p10403
tp10404
a(V'll
S'MD'
p10405
tp10406
a(Vbe
S'VB'
p10407
tp10408
a(Vyour
S'PRP$'
p10409
tp10410
a(Veyes
S'NNS'
tp10411
a(V,
S','
tp10412
a(VI
g10403
tp10413
a(V'll
g10405
tp10414
a(Vbe
g10407
tp10415
a(Vyour
g10409
tp10416
a(Vlifeline
g10400
tp10417
aa(lp10418
(VAnd
S'CC'
tp10419
a(Vif
S'IN'
tp10420
a(Vi
S'VBN'
tp10421
a(Vcan
S'MD'
tp10422
a(Vbe
S'VB'
p10423
tp10424
a(V,
S','
tp10425
a(VI
S'PRP'
tp10426
a(V'll
S'MD'
tp10427
a(Vbe
g10423
tp10428
a(Vyour
S'PRP$'
tp10429
a(Vstrength
S'NN'
tp10430
a(V,
S','
tp10431
a(Vit
S'PRP'
tp10432
a(Vwo
S'MD'
tp10433
a(Vn't
S'RB'
tp10434
a(Vbe
g10423
tp10435
a(Vlong
S'RB'
tp10436
a(Vnow
S'RB'
tp10437
aa(lp10438
(VHead
S'NNP'
tp10439
a(Vup
S'RB'
p10440
tp10441
a(V,
S','
tp10442
a(Vhead
S'NN'
tp10443
a(Vup
g10440
tp10444
a(V,
S','
tp10445
a(Vkeep
S'VB'
tp10446
a(Vholding
S'VBG'
tp10447
a(Vyour
S'PRP$'
tp10448
aa(lp10449
(VHead
S'NNP'
tp10450
a(Vup
S'RB'
p10451
tp10452
a(V,
S','
tp10453
a(Vhead
S'NN'
tp10454
a(Vup
g10451
tp10455
a(V,
S','
tp10456
a(Vkeep
S'VB'
tp10457
a(Vholding
S'VBG'
tp10458
aa(lp10459
(VIf
S'IN'
tp10460
a(Vyou
S'PRP'
p10461
tp10462
a(Vcan
S'MD'
tp10463
a(Vsee
S'VB'
tp10464
a(V,
S','
tp10465
a(Vand
S'CC'
tp10466
a(Vyou
g10461
tp10467
a(Vbelieve
S'VBP'
tp10468
a(V,
S','
tp10469
a(Vwhy
S'WRB'
tp10470
a(Vare
S'VBP'
tp10471
a(Vyou
g10461
tp10472
a(Vso
S'RB'
tp10473
a(Vscared
S'VBD'
tp10474
a(V?
S'.'
tp10475
aa(lp10476
(VBut
S'CC'
tp10477
a(Vif
S'IN'
tp10478
a(Vyou
S'PRP'
p10479
tp10480
a(Vdo
S'VBP'
p10481
tp10482
a(Vn't
S'RB'
tp10483
a(Vcare
S'VB'
p10484
tp10485
a(V,
S','
tp10486
a(Vthen
S'RB'
tp10487
a(Vwhy
S'WRB'
tp10488
a(Vare
S'VBP'
tp10489
a(Vwe
S'PRP'
tp10490
a(Vhere
S'RB'
tp10491
a(V?
S'.'
tp10492
a(VAnd
S'CC'
tp10493
a(Vwhat
S'WP'
tp10494
a(Vdo
g10481
tp10495
a(Vyou
g10479
tp10496
a(Vhave
g10484
tp10497
a(Vleft
S'VBN'
tp10498
a(V?
S'.'
tp10499
aa(lp10500
(VHead
S'NNP'
tp10501
a(Vup
S'RB'
p10502
tp10503
a(V,
S','
tp10504
a(Vhead
S'NN'
tp10505
a(Vup
g10502
tp10506
a(V,
S','
tp10507
a(Vkeep
S'VB'
tp10508
a(Vholding
S'VBG'
tp10509
a(Vyour
S'PRP$'
tp10510
aa(lp10511
(VHead
S'NNP'
tp10512
a(Vup
S'RB'
p10513
tp10514
a(V,
S','
tp10515
a(Vhead
S'NN'
tp10516
a(Vup
g10513
tp10517
a(V,
S','
tp10518
a(Vkeep
S'VB'
tp10519
a(Vholding
S'VBG'
tp10520
aa(lp10521
(VDo
S'VBP'
tp10522
a(Vn't
S'RB'
tp10523
a(Vyou
S'PRP'
tp10524
a(Vtake
S'VB'
tp10525
a(Vanother
S'DT'
tp10526
a(Vstep
S'NN'
tp10527
a(Vaway
S'RB'
tp10528
a(Vfrom
S'IN'
tp10529
a(Vhere
S'RB'
tp10530
aa(lp10531
(VI
S'PRP'
tp10532
a(Vwill
S'MD'
tp10533
a(Vgo
S'VB'
tp10534
a(Vanywhere
S'RB'
tp10535
a(Vwith
S'IN'
tp10536
a(Vyou
S'PRP'
tp10537
a(V--
S':'
tp10538
a(Vwhat
S'WP'
tp10539
a(Va
S'DT'
tp10540
a(Vlie
S'NN'
tp10541
aa(lp10542
(VI
S'PRP'
tp10543
a(V'll
S'MD'
tp10544
a(Vbreak
S'VB'
p10545
tp10546
a(Vdown
S'RP'
tp10547
a(Vbut
S'CC'
tp10548
a(Vyou
S'PRP'
tp10549
a(Vwill
S'MD'
tp10550
a(Vnever
S'RB'
tp10551
a(Vsee
g10545
tp10552
aa(lp10553
(VAnd
S'CC'
tp10554
a(Vtell
S'VB'
tp10555
a(Vme
S'PRP'
tp10556
a(Vare
S'VBP'
tp10557
a(Vyou
S'PRP'
tp10558
a(Vhappy
S'JJ'
tp10559
a(V?
S'.'
tp10560
aa(lp10561
(VAre
S'NNP'
tp10562
a(Vyou
S'PRP'
tp10563
a(Vreally
S'RB'
tp10564
a(Vhappy
S'JJ'
tp10565
a(V?
S'.'
tp10566
aa(lp10567
(VStay
S'NNP'
tp10568
a(Vunder
S'IN'
tp10569
a(Vthe
S'DT'
tp10570
a(Vtide
S'NN'
p10571
tp10572
a(V,
S','
tp10573
a(Vstay
g10571
tp10574
a(Vin
S'IN'
tp10575
a(Vmy
S'PRP$'
tp10576
a(Veyeline
g10571
tp10577
aa(lp10578
(VLooking
S'VBG'
tp10579
a(Vahead
S'RB'
tp10580
a(V,
S','
tp10581
a(Vthere
S'EX'
tp10582
a(Vis
S'VBZ'
tp10583
a(Va
S'DT'
tp10584
a(Vchance
S'NN'
tp10585
a(V,
S','
tp10586
a(Vwherever
S'WP'
tp10587
a(Vit
S'PRP'
tp10588
a(Vall
S'DT'
tp10589
a(Vends
S'NNS'
tp10590
aa(lp10591
(VHead
S'NNP'
tp10592
a(Vup
S'RB'
p10593
tp10594
a(V,
S','
tp10595
a(Vhead
S'NN'
tp10596
a(Vup
g10593
tp10597
a(V,
S','
tp10598
a(Vkeep
S'VB'
tp10599
a(Vholding
S'VBG'
tp10600
a(Vyour
S'PRP$'
tp10601
aa(lp10602
(VHead
S'NNP'
tp10603
a(Vup
S'RB'
p10604
tp10605
a(V,
S','
tp10606
a(Vhead
S'NN'
tp10607
a(Vup
g10604
tp10608
a(V,
S','
tp10609
a(Vkeep
S'VB'
tp10610
a(Vholding
S'VBG'
tp10611
aa(lp10612
(VSlowly
S'RB'
tp10613
a(Vcross
S'NN'
tp10614
a(Voff
S'IN'
p10615
tp10616
a(Vthe
S'DT'
tp10617
a(Vdays
S'NNS'
tp10618
a(Vthat
g10615
tp10619
a(Vthey
S'PRP'
tp10620
a(Vsaid
S'VBD'
tp10621
a(Vyou
S'PRP'
tp10622
a(Vcan
S'MD'
tp10623
a(Vhave
S'VB'
tp10624
aa(lp10625
(VTry
S'VB'
p10626
tp10627
a(Vto
S'TO'
tp10628
a(Vretie
g10626
tp10629
a(Vthe
S'DT'
tp10630
a(Vties
S'NNS'
tp10631
a(Vthat
S'IN'
p10632
tp10633
a(Vyou
S'PRP'
tp10634
a(Vwill
S'MD'
tp10635
a(Vleave
g10626
tp10636
a(Vbehind
g10632
tp10637
aassS'william fitzsimmons'
p10638
(dp10639
VThe Tide Pulls From the Moon
p10640
(lp10641
(lp10642
(VSo
S'RB'
tp10643
a(Vlike
S'IN'
tp10644
a(Vyour
S'PRP$'
tp10645
aa(lp10646
(VFather
S'NN'
p10647
tp10648
a(Vin
S'IN'
tp10649
a(Vthe
S'DT'
tp10650
a(Vface
g10647
tp10651
a(Vand
S'CC'
tp10652
a(Vblood
g10647
tp10653
aa(lp10654
(VTerrified
S'NNP'
tp10655
a(Vand
S'CC'
tp10656
a(Vcold
S'VB'
tp10657
aa(lp10658
(VAnd
S'CC'
tp10659
a(Vwhispers
S'NNS'
tp10660
aa(lp10661
(VThe
S'DT'
tp10662
a(Vcoming
S'VBG'
tp10663
a(Vof
S'IN'
tp10664
a(Va
S'DT'
tp10665
a(Vcleansing
S'NN'
p10666
tp10667
a(Vflood
g10666
tp10668
aa(lp10669
(VFor
S'IN'
tp10670
a(Vyou
S'PRP'
tp10671
aa(lp10672
(VYou
S'PRP'
tp10673
a(Vhide
S'VBP'
tp10674
a(Vyour
S'PRP$'
tp10675
aa(lp10676
(VFilthy
S'JJ'
tp10677
a(Vhands
S'NNS'
tp10678
a(Vfrom
S'IN'
tp10679
a(Vall
S'DT'
tp10680
a(Vof
S'IN'
tp10681
a(Vus
S'PRP'
tp10682
aa(lp10683
(VStill
S'RB'
tp10684
a(Vunseen
S'JJ'
tp10685
a(Vand
S'CC'
tp10686
a(Vtied
S'VBD'
tp10687
aa(lp10688
(VWhat
S'WP'
tp10689
a(Vwater
S'NN'
tp10690
aa(lp10691
(VThese
S'DT'
tp10692
a(Vkilling
S'VBG'
tp10693
a(Vhands
S'NNS'
tp10694
a(Vcould
S'MD'
tp10695
a(Vever
S'RB'
tp10696
a(Vclean
S'VB'
tp10697
aa(lp10698
(VStill
S'RB'
tp10699
a(Vyou
S'PRP'
tp10700
a(Vrun
S'VBP'
tp10701
aa(lp10702
(VI
S'PRP'
tp10703
a(Vwant
S'VBP'
tp10704
a(Vto
S'TO'
tp10705
a(Vbe
S'VB'
tp10706
a(Vchanged
S'VBN'
tp10707
a(Vfrom
S'IN'
tp10708
aa(lp10709
(VThe
S'DT'
tp10710
a(Vshadow
S'NN'
p10711
tp10712
a(Vand
S'CC'
tp10713
a(Vthe
S'DT'
tp10714
a(Vtomb
g10711
tp10715
aa(lp10716
(VLike
S'IN'
tp10717
a(Vwater
S'NN'
tp10718
a(Vrushing
S'VBG'
tp10719
a(Vover
S'IN'
tp10720
a(Vus
S'PRP'
tp10721
aa(lp10722
(VThe
S'DT'
tp10723
a(Vtide
S'NN'
p10724
tp10725
a(Vpulls
S'VBZ'
tp10726
a(Vfrom
S'IN'
tp10727
a(Vthe
S'DT'
tp10728
a(Vmoon
g10724
tp10729
aa(lp10730
(VYour
S'PRP$'
tp10731
a(Vmother
S'NN'
tp10732
aa(lp10733
(VThe
S'DT'
tp10734
a(Vpassing
S'NN'
p10735
tp10736
a(Vof
S'IN'
tp10737
a(Va
S'DT'
tp10738
a(Vsilver
g10735
tp10739
a(Vring
g10735
tp10740
aa(lp10741
(VOversized
S'VBN'
tp10742
a(Vand
S'CC'
tp10743
a(Vcold
S'JJ'
tp10744
aa(lp10745
(VThis
S'DT'
tp10746
a(Vspecter
S'NN'
tp10747
aa(lp10748
(VWill
S'MD'
tp10749
a(Vwalk
S'VB'
tp10750
a(Vthe
S'DT'
tp10751
a(Vhalls
S'NNS'
tp10752
a(Vof
S'IN'
tp10753
a(Vevery
S'DT'
tp10754
a(Vseed
S'NN'
tp10755
aa(lp10756
(VFrom
S'IN'
tp10757
a(Vyou
S'PRP'
tp10758
aa(lp10759
(VI
S'PRP'
tp10760
a(Vwant
S'VBP'
tp10761
a(Vto
S'TO'
tp10762
a(Vbe
S'VB'
tp10763
a(Vchanged
S'VBN'
tp10764
a(Vfrom
S'IN'
tp10765
aa(lp10766
(VThe
S'DT'
tp10767
a(Vshadow
S'NN'
p10768
tp10769
a(Vand
S'CC'
tp10770
a(Vthe
S'DT'
tp10771
a(Vtomb
g10768
tp10772
aa(lp10773
(VLike
S'IN'
tp10774
a(Vwater
S'NN'
tp10775
a(Vrushing
S'VBG'
tp10776
a(Vover
S'IN'
tp10777
a(Vus
S'PRP'
tp10778
aa(lp10779
(VThe
S'DT'
tp10780
a(Vtide
S'NN'
p10781
tp10782
a(Vpulls
S'VBZ'
tp10783
a(Vfrom
S'IN'
tp10784
a(Vthe
S'DT'
tp10785
a(Vmoon
g10781
tp10786
aa(lp10787
(VThe
S'DT'
tp10788
a(Vtide
S'NN'
p10789
tp10790
a(Vpulls
S'VBZ'
tp10791
a(Vfrom
S'IN'
tp10792
a(Vthe
S'DT'
tp10793
a(Vmoon
g10789
tp10794
aa(lp10795
(VThe
S'DT'
tp10796
a(Vtide
S'NN'
p10797
tp10798
a(Vpulls
S'VBZ'
tp10799
a(Vfrom
S'IN'
tp10800
a(Vthe
S'DT'
tp10801
a(Vmoon
g10797
tp10802
aass.